

Microchip MPLAB XC8 Assembler V2.32 build 20210201212658 
                                                                                               Sun Apr 23 22:27:45 2023

Microchip MPLAB XC8 C Compiler v2.32 (Free license) build 20210201212658 Og1 
     1                           	processor	16F18446
     2                           	pagewidth 120
     3                           	opt	flic
     4                           	psect	stringtext1,global,class=STRCODE,delta=2,noexec
     5                           	psect	stringtext2,global,class=STRCODE,delta=2,noexec
     6                           	psect	stringtext3,global,class=STRCODE,delta=2,noexec
     7                           	psect	stringtext4,global,class=STRCODE,delta=2,noexec
     8                           	psect	cinit,global,class=CODE,merge=1,delta=2
     9                           	psect	bssBANK0,global,class=BANK0,space=1,delta=1,noexec
    10                           	psect	bssBANK1,global,class=BANK1,space=1,delta=1,noexec
    11                           	psect	clrtext,global,class=CODE,delta=2
    12                           	psect	cstackBANK1,global,class=BANK1,space=1,delta=1,noexec
    13                           	psect	cstackCOMMON,global,class=COMMON,space=1,delta=1,noexec
    14                           	psect	cstackBANK0,global,class=BANK0,space=1,delta=1,noexec
    15                           	psect	maintext,global,class=CODE,merge=1,split=1,delta=2
    16                           	psect	text1,local,class=CODE,merge=1,delta=2
    17                           	psect	text2,local,class=CODE,merge=1,delta=2
    18                           	psect	text3,local,class=CODE,merge=1,delta=2
    19                           	psect	text4,local,class=CODE,merge=1,delta=2,group=3
    20                           	psect	text5,local,class=CODE,merge=1,delta=2,group=1
    21                           	psect	text6,local,class=CODE,merge=1,delta=2,group=1
    22                           	psect	text7,local,class=CODE,merge=1,delta=2,group=3
    23                           	psect	text8,local,class=CODE,merge=1,delta=2,group=1
    24                           	psect	text9,local,class=CODE,merge=1,delta=2,group=1
    25                           	psect	text10,local,class=CODE,merge=1,delta=2,group=3
    26                           	psect	text11,local,class=CODE,merge=1,delta=2,group=3
    27                           	psect	text12,local,class=CODE,merge=1,delta=2,group=3
    28                           	psect	text13,local,class=CODE,merge=1,delta=2
    29                           	psect	text14,local,class=CODE,merge=1,delta=2,group=3
    30                           	psect	text15,local,class=CODE,merge=1,delta=2,group=2
    31                           	psect	text16,local,class=CODE,merge=1,delta=2,group=2
    32                           	psect	text17,local,class=CODE,merge=1,delta=2,group=3
    33                           	psect	text18,local,class=CODE,merge=1,delta=2,group=3
    34                           	psect	text19,local,class=CODE,merge=1,delta=2,group=2
    35                           	psect	text20,local,class=CODE,merge=1,delta=2,group=2
    36                           	psect	text21,local,class=CODE,merge=1,delta=2,group=2
    37                           	psect	text22,local,class=CODE,merge=1,delta=2,group=2
    38                           	psect	text23,local,class=CODE,merge=1,delta=2,group=2
    39                           	psect	text24,local,class=CODE,merge=1,delta=2,group=2
    40                           	psect	text25,local,class=CODE,merge=1,delta=2,group=2
    41                           	psect	text26,local,class=CODE,merge=1,delta=2,group=2
    42                           	psect	text27,local,class=CODE,merge=1,delta=2,group=2
    43                           	psect	text28,local,class=CODE,merge=1,delta=2,group=2
    44                           	psect	intentry,global,class=CODE,delta=2
    45                           	psect	idloc,global,abs,ovrld,class=IDLOC,space=5,delta=2,noexec
    46                           	psect	config,global,abs,ovrld,class=CONFIG,space=4,delta=2,noexec
    47                           	dabs	1,0x7E,2
    48  0000                     
    49                           ; Generated 19/07/2022 GMT
    50                           ; 
    51                           ; Copyright © 2022, Microchip Technology Inc. and its subsidiaries ("Microchip")
    52                           ; All rights reserved.
    53                           ; 
    54                           ; This software is developed by Microchip Technology Inc. and its subsidiaries ("Microch
      +                          ip").
    55                           ; 
    56                           ; Redistribution and use in source and binary forms, with or without modification, are
    57                           ; permitted provided that the following conditions are met:
    58                           ; 
    59                           ;     1. Redistributions of source code must retain the above copyright notice, this lis
      +                          t of
    60                           ;        conditions and the following disclaimer.
    61                           ; 
    62                           ;     2. Redistributions in binary form must reproduce the above copyright notice, this 
      +                          list
    63                           ;        of conditions and the following disclaimer in the documentation and/or other
    64                           ;        materials provided with the distribution. Publication is not required when
    65                           ;        this file is used in an embedded application.
    66                           ; 
    67                           ;     3. Microchip's name may not be used to endorse or promote products derived from th
      +                          is
    68                           ;        software without specific prior written permission.
    69                           ; 
    70                           ; THIS SOFTWARE IS PROVIDED BY MICROCHIP "AS IS" AND ANY EXPRESS OR IMPLIED WARRANTIES,
    71                           ; INCLUDING, BUT NOT LIMITED TO, THE IMPLIED WARRANTIES OF MERCHANTABILITY AND FITNESS F
      +                          OR
    72                           ; PURPOSE ARE DISCLAIMED.  IN NO EVENT SHALL MICROCHIP BE LIABLE FOR ANY DIRECT, INDIREC
      +                          T,
    73                           ; INCIDENTAL, SPECIAL, EXEMPLARY, OR CONSEQUENTIAL DAMAGES (INCLUDING BUT NOT LIMITED TO
    74                           ; PROCUREMENT OF SUBSTITUTE GOODS OR SERVICES; LOSS OF USE, DATA OR PROFITS; OR BUSINESS
    75                           ; INTERRUPTION) HOWSOEVER CAUSED AND ON ANY THEORY OF LIABILITY, WHETHER IN CONTRACT, ST
      +                          RICT
    76                           ; LIABILITY, OR TORT (INCLUDING NEGLIGENCE OR OTHERWISE) ARISING IN ANY WAY OUT OF THE U
      +                          SE OF
    77                           ; THIS SOFTWARE, EVEN IF ADVISED OF THE POSSIBILITY OF SUCH DAMAGE.
    78                           ; 
    79                           ; 
    80                           ; Code-generator required, PIC16F18446 Definitions
    81                           ; 
    82                           ; SFR Addresses
    83  0000                     	;# 
    84  0001                     	;# 
    85  0002                     	;# 
    86  0003                     	;# 
    87  0004                     	;# 
    88  0005                     	;# 
    89  0006                     	;# 
    90  0007                     	;# 
    91  0008                     	;# 
    92  0009                     	;# 
    93  000A                     	;# 
    94  000B                     	;# 
    95  000C                     	;# 
    96  000D                     	;# 
    97  000E                     	;# 
    98  0012                     	;# 
    99  0013                     	;# 
   100  0014                     	;# 
   101  0018                     	;# 
   102  0019                     	;# 
   103  001A                     	;# 
   104  008C                     	;# 
   105  008C                     	;# 
   106  008D                     	;# 
   107  008E                     	;# 
   108  008E                     	;# 
   109  008F                     	;# 
   110  0090                     	;# 
   111  0090                     	;# 
   112  0091                     	;# 
   113  0092                     	;# 
   114  0092                     	;# 
   115  0093                     	;# 
   116  0094                     	;# 
   117  0094                     	;# 
   118  0095                     	;# 
   119  0096                     	;# 
   120  0096                     	;# 
   121  0097                     	;# 
   122  0098                     	;# 
   123  0099                     	;# 
   124  009A                     	;# 
   125  009B                     	;# 
   126  009B                     	;# 
   127  009C                     	;# 
   128  009D                     	;# 
   129  009D                     	;# 
   130  009E                     	;# 
   131  009F                     	;# 
   132  010C                     	;# 
   133  010C                     	;# 
   134  010D                     	;# 
   135  010E                     	;# 
   136  010F                     	;# 
   137  010F                     	;# 
   138  0110                     	;# 
   139  0111                     	;# 
   140  0112                     	;# 
   141  0113                     	;# 
   142  0114                     	;# 
   143  0115                     	;# 
   144  0116                     	;# 
   145  0117                     	;# 
   146  0118                     	;# 
   147  0119                     	;# 
   148  0119                     	;# 
   149  0119                     	;# 
   150  011A                     	;# 
   151  011A                     	;# 
   152  011A                     	;# 
   153  011B                     	;# 
   154  011B                     	;# 
   155  011B                     	;# 
   156  011B                     	;# 
   157  011B                     	;# 
   158  011C                     	;# 
   159  011C                     	;# 
   160  011C                     	;# 
   161  011D                     	;# 
   162  011D                     	;# 
   163  011D                     	;# 
   164  011E                     	;# 
   165  011E                     	;# 
   166  011E                     	;# 
   167  011F                     	;# 
   168  011F                     	;# 
   169  011F                     	;# 
   170  011F                     	;# 
   171  011F                     	;# 
   172  018C                     	;# 
   173  018D                     	;# 
   174  018E                     	;# 
   175  018F                     	;# 
   176  0190                     	;# 
   177  0191                     	;# 
   178  0192                     	;# 
   179  0196                     	;# 
   180  0197                     	;# 
   181  0198                     	;# 
   182  0199                     	;# 
   183  019A                     	;# 
   184  019B                     	;# 
   185  019C                     	;# 
   186  020C                     	;# 
   187  020D                     	;# 
   188  020E                     	;# 
   189  020E                     	;# 
   190  020F                     	;# 
   191  020F                     	;# 
   192  0210                     	;# 
   193  0210                     	;# 
   194  0211                     	;# 
   195  0211                     	;# 
   196  0212                     	;# 
   197  0213                     	;# 
   198  0214                     	;# 
   199  0214                     	;# 
   200  0215                     	;# 
   201  0215                     	;# 
   202  0216                     	;# 
   203  0216                     	;# 
   204  0217                     	;# 
   205  0217                     	;# 
   206  0218                     	;# 
   207  0219                     	;# 
   208  021A                     	;# 
   209  021A                     	;# 
   210  021B                     	;# 
   211  021B                     	;# 
   212  021C                     	;# 
   213  021C                     	;# 
   214  021D                     	;# 
   215  021D                     	;# 
   216  021E                     	;# 
   217  021F                     	;# 
   218  028C                     	;# 
   219  028C                     	;# 
   220  028D                     	;# 
   221  028D                     	;# 
   222  028E                     	;# 
   223  028F                     	;# 
   224  0290                     	;# 
   225  0291                     	;# 
   226  0292                     	;# 
   227  0292                     	;# 
   228  0293                     	;# 
   229  0293                     	;# 
   230  0294                     	;# 
   231  0295                     	;# 
   232  0296                     	;# 
   233  0297                     	;# 
   234  0298                     	;# 
   235  0298                     	;# 
   236  0299                     	;# 
   237  0299                     	;# 
   238  029A                     	;# 
   239  029B                     	;# 
   240  029C                     	;# 
   241  029D                     	;# 
   242  029F                     	;# 
   243  030C                     	;# 
   244  030C                     	;# 
   245  030D                     	;# 
   246  030E                     	;# 
   247  030F                     	;# 
   248  0310                     	;# 
   249  0310                     	;# 
   250  0311                     	;# 
   251  0312                     	;# 
   252  0313                     	;# 
   253  0314                     	;# 
   254  0314                     	;# 
   255  0315                     	;# 
   256  0316                     	;# 
   257  0317                     	;# 
   258  0318                     	;# 
   259  0318                     	;# 
   260  0319                     	;# 
   261  031A                     	;# 
   262  031B                     	;# 
   263  038C                     	;# 
   264  038C                     	;# 
   265  038D                     	;# 
   266  038E                     	;# 
   267  0390                     	;# 
   268  0390                     	;# 
   269  0391                     	;# 
   270  0392                     	;# 
   271  048C                     	;# 
   272  048C                     	;# 
   273  048D                     	;# 
   274  048E                     	;# 
   275  048F                     	;# 
   276  048F                     	;# 
   277  0490                     	;# 
   278  0491                     	;# 
   279  0492                     	;# 
   280  0492                     	;# 
   281  0493                     	;# 
   282  0494                     	;# 
   283  0495                     	;# 
   284  0495                     	;# 
   285  0496                     	;# 
   286  0497                     	;# 
   287  0498                     	;# 
   288  0499                     	;# 
   289  049A                     	;# 
   290  049B                     	;# 
   291  049C                     	;# 
   292  049D                     	;# 
   293  058C                     	;# 
   294  058C                     	;# 
   295  058D                     	;# 
   296  058E                     	;# 
   297  058F                     	;# 
   298  058F                     	;# 
   299  0590                     	;# 
   300  0591                     	;# 
   301  0592                     	;# 
   302  0593                     	;# 
   303  059C                     	;# 
   304  059C                     	;# 
   305  059D                     	;# 
   306  059D                     	;# 
   307  059E                     	;# 
   308  059F                     	;# 
   309  060C                     	;# 
   310  060C                     	;# 
   311  060D                     	;# 
   312  060D                     	;# 
   313  060E                     	;# 
   314  060F                     	;# 
   315  0610                     	;# 
   316  0611                     	;# 
   317  0612                     	;# 
   318  0613                     	;# 
   319  0614                     	;# 
   320  0616                     	;# 
   321  0616                     	;# 
   322  0617                     	;# 
   323  0617                     	;# 
   324  0618                     	;# 
   325  0619                     	;# 
   326  061A                     	;# 
   327  061B                     	;# 
   328  061C                     	;# 
   329  061D                     	;# 
   330  061E                     	;# 
   331  070C                     	;# 
   332  070D                     	;# 
   333  070E                     	;# 
   334  070F                     	;# 
   335  0710                     	;# 
   336  0711                     	;# 
   337  0712                     	;# 
   338  0713                     	;# 
   339  0714                     	;# 
   340  0716                     	;# 
   341  0717                     	;# 
   342  0718                     	;# 
   343  0719                     	;# 
   344  071A                     	;# 
   345  071B                     	;# 
   346  071C                     	;# 
   347  071D                     	;# 
   348  071E                     	;# 
   349  0796                     	;# 
   350  0797                     	;# 
   351  0798                     	;# 
   352  0799                     	;# 
   353  079A                     	;# 
   354  079B                     	;# 
   355  079C                     	;# 
   356  079D                     	;# 
   357  080C                     	;# 
   358  080D                     	;# 
   359  080E                     	;# 
   360  080F                     	;# 
   361  0810                     	;# 
   362  0811                     	;# 
   363  0812                     	;# 
   364  0813                     	;# 
   365  0814                     	;# 
   366  081A                     	;# 
   367  081A                     	;# 
   368  081B                     	;# 
   369  081C                     	;# 
   370  081C                     	;# 
   371  081D                     	;# 
   372  081E                     	;# 
   373  081F                     	;# 
   374  088C                     	;# 
   375  088D                     	;# 
   376  088E                     	;# 
   377  088F                     	;# 
   378  0890                     	;# 
   379  0891                     	;# 
   380  0892                     	;# 
   381  0893                     	;# 
   382  0895                     	;# 
   383  0896                     	;# 
   384  0897                     	;# 
   385  0898                     	;# 
   386  0899                     	;# 
   387  089A                     	;# 
   388  089B                     	;# 
   389  090C                     	;# 
   390  090E                     	;# 
   391  090F                     	;# 
   392  091F                     	;# 
   393  098F                     	;# 
   394  098F                     	;# 
   395  0990                     	;# 
   396  0991                     	;# 
   397  0992                     	;# 
   398  0993                     	;# 
   399  0994                     	;# 
   400  0995                     	;# 
   401  0996                     	;# 
   402  0997                     	;# 
   403  1E0F                     	;# 
   404  1E10                     	;# 
   405  1E11                     	;# 
   406  1E12                     	;# 
   407  1E13                     	;# 
   408  1E14                     	;# 
   409  1E15                     	;# 
   410  1E16                     	;# 
   411  1E17                     	;# 
   412  1E18                     	;# 
   413  1E19                     	;# 
   414  1E1A                     	;# 
   415  1E1B                     	;# 
   416  1E1C                     	;# 
   417  1E1D                     	;# 
   418  1E1E                     	;# 
   419  1E1F                     	;# 
   420  1E20                     	;# 
   421  1E21                     	;# 
   422  1E22                     	;# 
   423  1E23                     	;# 
   424  1E24                     	;# 
   425  1E25                     	;# 
   426  1E26                     	;# 
   427  1E27                     	;# 
   428  1E28                     	;# 
   429  1E29                     	;# 
   430  1E2A                     	;# 
   431  1E2B                     	;# 
   432  1E2C                     	;# 
   433  1E2D                     	;# 
   434  1E2E                     	;# 
   435  1E2F                     	;# 
   436  1E30                     	;# 
   437  1E31                     	;# 
   438  1E32                     	;# 
   439  1E33                     	;# 
   440  1E34                     	;# 
   441  1E35                     	;# 
   442  1E36                     	;# 
   443  1E37                     	;# 
   444  1E8F                     	;# 
   445  1E90                     	;# 
   446  1E91                     	;# 
   447  1E92                     	;# 
   448  1E93                     	;# 
   449  1E94                     	;# 
   450  1E95                     	;# 
   451  1E96                     	;# 
   452  1E97                     	;# 
   453  1E9C                     	;# 
   454  1E9D                     	;# 
   455  1E9E                     	;# 
   456  1EA1                     	;# 
   457  1EA2                     	;# 
   458  1EA3                     	;# 
   459  1EA4                     	;# 
   460  1EA9                     	;# 
   461  1EAA                     	;# 
   462  1EB1                     	;# 
   463  1EB2                     	;# 
   464  1EB8                     	;# 
   465  1EB9                     	;# 
   466  1EBA                     	;# 
   467  1EBB                     	;# 
   468  1EBC                     	;# 
   469  1EBD                     	;# 
   470  1EBE                     	;# 
   471  1EC3                     	;# 
   472  1EC5                     	;# 
   473  1EC6                     	;# 
   474  1EC7                     	;# 
   475  1EC8                     	;# 
   476  1EC9                     	;# 
   477  1ECA                     	;# 
   478  1ECB                     	;# 
   479  1ECB                     	;# 
   480  1ECB                     	;# 
   481  1ECC                     	;# 
   482  1ECC                     	;# 
   483  1ECC                     	;# 
   484  1F10                     	;# 
   485  1F11                     	;# 
   486  1F12                     	;# 
   487  1F14                     	;# 
   488  1F15                     	;# 
   489  1F1C                     	;# 
   490  1F1D                     	;# 
   491  1F1E                     	;# 
   492  1F1F                     	;# 
   493  1F20                     	;# 
   494  1F21                     	;# 
   495  1F22                     	;# 
   496  1F23                     	;# 
   497  1F24                     	;# 
   498  1F25                     	;# 
   499  1F26                     	;# 
   500  1F27                     	;# 
   501  1F38                     	;# 
   502  1F39                     	;# 
   503  1F3A                     	;# 
   504  1F3B                     	;# 
   505  1F3C                     	;# 
   506  1F3D                     	;# 
   507  1F3E                     	;# 
   508  1F3F                     	;# 
   509  1F43                     	;# 
   510  1F44                     	;# 
   511  1F45                     	;# 
   512  1F46                     	;# 
   513  1F47                     	;# 
   514  1F48                     	;# 
   515  1F49                     	;# 
   516  1F4A                     	;# 
   517  1F4E                     	;# 
   518  1F4F                     	;# 
   519  1F50                     	;# 
   520  1F51                     	;# 
   521  1F52                     	;# 
   522  1F53                     	;# 
   523  1F54                     	;# 
   524  1F55                     	;# 
   525  1FE4                     	;# 
   526  1FE5                     	;# 
   527  1FE6                     	;# 
   528  1FE7                     	;# 
   529  1FE8                     	;# 
   530  1FE8                     	;# 
   531  1FE9                     	;# 
   532  1FEA                     	;# 
   533  1FEB                     	;# 
   534  1FED                     	;# 
   535  1FEE                     	;# 
   536  1FEF                     	;# 
   537  0000                     	;# 
   538  0001                     	;# 
   539  0002                     	;# 
   540  0003                     	;# 
   541  0004                     	;# 
   542  0005                     	;# 
   543  0006                     	;# 
   544  0007                     	;# 
   545  0008                     	;# 
   546  0009                     	;# 
   547  000A                     	;# 
   548  000B                     	;# 
   549  000C                     	;# 
   550  000D                     	;# 
   551  000E                     	;# 
   552  0012                     	;# 
   553  0013                     	;# 
   554  0014                     	;# 
   555  0018                     	;# 
   556  0019                     	;# 
   557  001A                     	;# 
   558  008C                     	;# 
   559  008C                     	;# 
   560  008D                     	;# 
   561  008E                     	;# 
   562  008E                     	;# 
   563  008F                     	;# 
   564  0090                     	;# 
   565  0090                     	;# 
   566  0091                     	;# 
   567  0092                     	;# 
   568  0092                     	;# 
   569  0093                     	;# 
   570  0094                     	;# 
   571  0094                     	;# 
   572  0095                     	;# 
   573  0096                     	;# 
   574  0096                     	;# 
   575  0097                     	;# 
   576  0098                     	;# 
   577  0099                     	;# 
   578  009A                     	;# 
   579  009B                     	;# 
   580  009B                     	;# 
   581  009C                     	;# 
   582  009D                     	;# 
   583  009D                     	;# 
   584  009E                     	;# 
   585  009F                     	;# 
   586  010C                     	;# 
   587  010C                     	;# 
   588  010D                     	;# 
   589  010E                     	;# 
   590  010F                     	;# 
   591  010F                     	;# 
   592  0110                     	;# 
   593  0111                     	;# 
   594  0112                     	;# 
   595  0113                     	;# 
   596  0114                     	;# 
   597  0115                     	;# 
   598  0116                     	;# 
   599  0117                     	;# 
   600  0118                     	;# 
   601  0119                     	;# 
   602  0119                     	;# 
   603  0119                     	;# 
   604  011A                     	;# 
   605  011A                     	;# 
   606  011A                     	;# 
   607  011B                     	;# 
   608  011B                     	;# 
   609  011B                     	;# 
   610  011B                     	;# 
   611  011B                     	;# 
   612  011C                     	;# 
   613  011C                     	;# 
   614  011C                     	;# 
   615  011D                     	;# 
   616  011D                     	;# 
   617  011D                     	;# 
   618  011E                     	;# 
   619  011E                     	;# 
   620  011E                     	;# 
   621  011F                     	;# 
   622  011F                     	;# 
   623  011F                     	;# 
   624  011F                     	;# 
   625  011F                     	;# 
   626  018C                     	;# 
   627  018D                     	;# 
   628  018E                     	;# 
   629  018F                     	;# 
   630  0190                     	;# 
   631  0191                     	;# 
   632  0192                     	;# 
   633  0196                     	;# 
   634  0197                     	;# 
   635  0198                     	;# 
   636  0199                     	;# 
   637  019A                     	;# 
   638  019B                     	;# 
   639  019C                     	;# 
   640  020C                     	;# 
   641  020D                     	;# 
   642  020E                     	;# 
   643  020E                     	;# 
   644  020F                     	;# 
   645  020F                     	;# 
   646  0210                     	;# 
   647  0210                     	;# 
   648  0211                     	;# 
   649  0211                     	;# 
   650  0212                     	;# 
   651  0213                     	;# 
   652  0214                     	;# 
   653  0214                     	;# 
   654  0215                     	;# 
   655  0215                     	;# 
   656  0216                     	;# 
   657  0216                     	;# 
   658  0217                     	;# 
   659  0217                     	;# 
   660  0218                     	;# 
   661  0219                     	;# 
   662  021A                     	;# 
   663  021A                     	;# 
   664  021B                     	;# 
   665  021B                     	;# 
   666  021C                     	;# 
   667  021C                     	;# 
   668  021D                     	;# 
   669  021D                     	;# 
   670  021E                     	;# 
   671  021F                     	;# 
   672  028C                     	;# 
   673  028C                     	;# 
   674  028D                     	;# 
   675  028D                     	;# 
   676  028E                     	;# 
   677  028F                     	;# 
   678  0290                     	;# 
   679  0291                     	;# 
   680  0292                     	;# 
   681  0292                     	;# 
   682  0293                     	;# 
   683  0293                     	;# 
   684  0294                     	;# 
   685  0295                     	;# 
   686  0296                     	;# 
   687  0297                     	;# 
   688  0298                     	;# 
   689  0298                     	;# 
   690  0299                     	;# 
   691  0299                     	;# 
   692  029A                     	;# 
   693  029B                     	;# 
   694  029C                     	;# 
   695  029D                     	;# 
   696  029F                     	;# 
   697  030C                     	;# 
   698  030C                     	;# 
   699  030D                     	;# 
   700  030E                     	;# 
   701  030F                     	;# 
   702  0310                     	;# 
   703  0310                     	;# 
   704  0311                     	;# 
   705  0312                     	;# 
   706  0313                     	;# 
   707  0314                     	;# 
   708  0314                     	;# 
   709  0315                     	;# 
   710  0316                     	;# 
   711  0317                     	;# 
   712  0318                     	;# 
   713  0318                     	;# 
   714  0319                     	;# 
   715  031A                     	;# 
   716  031B                     	;# 
   717  038C                     	;# 
   718  038C                     	;# 
   719  038D                     	;# 
   720  038E                     	;# 
   721  0390                     	;# 
   722  0390                     	;# 
   723  0391                     	;# 
   724  0392                     	;# 
   725  048C                     	;# 
   726  048C                     	;# 
   727  048D                     	;# 
   728  048E                     	;# 
   729  048F                     	;# 
   730  048F                     	;# 
   731  0490                     	;# 
   732  0491                     	;# 
   733  0492                     	;# 
   734  0492                     	;# 
   735  0493                     	;# 
   736  0494                     	;# 
   737  0495                     	;# 
   738  0495                     	;# 
   739  0496                     	;# 
   740  0497                     	;# 
   741  0498                     	;# 
   742  0499                     	;# 
   743  049A                     	;# 
   744  049B                     	;# 
   745  049C                     	;# 
   746  049D                     	;# 
   747  058C                     	;# 
   748  058C                     	;# 
   749  058D                     	;# 
   750  058E                     	;# 
   751  058F                     	;# 
   752  058F                     	;# 
   753  0590                     	;# 
   754  0591                     	;# 
   755  0592                     	;# 
   756  0593                     	;# 
   757  059C                     	;# 
   758  059C                     	;# 
   759  059D                     	;# 
   760  059D                     	;# 
   761  059E                     	;# 
   762  059F                     	;# 
   763  060C                     	;# 
   764  060C                     	;# 
   765  060D                     	;# 
   766  060D                     	;# 
   767  060E                     	;# 
   768  060F                     	;# 
   769  0610                     	;# 
   770  0611                     	;# 
   771  0612                     	;# 
   772  0613                     	;# 
   773  0614                     	;# 
   774  0616                     	;# 
   775  0616                     	;# 
   776  0617                     	;# 
   777  0617                     	;# 
   778  0618                     	;# 
   779  0619                     	;# 
   780  061A                     	;# 
   781  061B                     	;# 
   782  061C                     	;# 
   783  061D                     	;# 
   784  061E                     	;# 
   785  070C                     	;# 
   786  070D                     	;# 
   787  070E                     	;# 
   788  070F                     	;# 
   789  0710                     	;# 
   790  0711                     	;# 
   791  0712                     	;# 
   792  0713                     	;# 
   793  0714                     	;# 
   794  0716                     	;# 
   795  0717                     	;# 
   796  0718                     	;# 
   797  0719                     	;# 
   798  071A                     	;# 
   799  071B                     	;# 
   800  071C                     	;# 
   801  071D                     	;# 
   802  071E                     	;# 
   803  0796                     	;# 
   804  0797                     	;# 
   805  0798                     	;# 
   806  0799                     	;# 
   807  079A                     	;# 
   808  079B                     	;# 
   809  079C                     	;# 
   810  079D                     	;# 
   811  080C                     	;# 
   812  080D                     	;# 
   813  080E                     	;# 
   814  080F                     	;# 
   815  0810                     	;# 
   816  0811                     	;# 
   817  0812                     	;# 
   818  0813                     	;# 
   819  0814                     	;# 
   820  081A                     	;# 
   821  081A                     	;# 
   822  081B                     	;# 
   823  081C                     	;# 
   824  081C                     	;# 
   825  081D                     	;# 
   826  081E                     	;# 
   827  081F                     	;# 
   828  088C                     	;# 
   829  088D                     	;# 
   830  088E                     	;# 
   831  088F                     	;# 
   832  0890                     	;# 
   833  0891                     	;# 
   834  0892                     	;# 
   835  0893                     	;# 
   836  0895                     	;# 
   837  0896                     	;# 
   838  0897                     	;# 
   839  0898                     	;# 
   840  0899                     	;# 
   841  089A                     	;# 
   842  089B                     	;# 
   843  090C                     	;# 
   844  090E                     	;# 
   845  090F                     	;# 
   846  091F                     	;# 
   847  098F                     	;# 
   848  098F                     	;# 
   849  0990                     	;# 
   850  0991                     	;# 
   851  0992                     	;# 
   852  0993                     	;# 
   853  0994                     	;# 
   854  0995                     	;# 
   855  0996                     	;# 
   856  0997                     	;# 
   857  1E0F                     	;# 
   858  1E10                     	;# 
   859  1E11                     	;# 
   860  1E12                     	;# 
   861  1E13                     	;# 
   862  1E14                     	;# 
   863  1E15                     	;# 
   864  1E16                     	;# 
   865  1E17                     	;# 
   866  1E18                     	;# 
   867  1E19                     	;# 
   868  1E1A                     	;# 
   869  1E1B                     	;# 
   870  1E1C                     	;# 
   871  1E1D                     	;# 
   872  1E1E                     	;# 
   873  1E1F                     	;# 
   874  1E20                     	;# 
   875  1E21                     	;# 
   876  1E22                     	;# 
   877  1E23                     	;# 
   878  1E24                     	;# 
   879  1E25                     	;# 
   880  1E26                     	;# 
   881  1E27                     	;# 
   882  1E28                     	;# 
   883  1E29                     	;# 
   884  1E2A                     	;# 
   885  1E2B                     	;# 
   886  1E2C                     	;# 
   887  1E2D                     	;# 
   888  1E2E                     	;# 
   889  1E2F                     	;# 
   890  1E30                     	;# 
   891  1E31                     	;# 
   892  1E32                     	;# 
   893  1E33                     	;# 
   894  1E34                     	;# 
   895  1E35                     	;# 
   896  1E36                     	;# 
   897  1E37                     	;# 
   898  1E8F                     	;# 
   899  1E90                     	;# 
   900  1E91                     	;# 
   901  1E92                     	;# 
   902  1E93                     	;# 
   903  1E94                     	;# 
   904  1E95                     	;# 
   905  1E96                     	;# 
   906  1E97                     	;# 
   907  1E9C                     	;# 
   908  1E9D                     	;# 
   909  1E9E                     	;# 
   910  1EA1                     	;# 
   911  1EA2                     	;# 
   912  1EA3                     	;# 
   913  1EA4                     	;# 
   914  1EA9                     	;# 
   915  1EAA                     	;# 
   916  1EB1                     	;# 
   917  1EB2                     	;# 
   918  1EB8                     	;# 
   919  1EB9                     	;# 
   920  1EBA                     	;# 
   921  1EBB                     	;# 
   922  1EBC                     	;# 
   923  1EBD                     	;# 
   924  1EBE                     	;# 
   925  1EC3                     	;# 
   926  1EC5                     	;# 
   927  1EC6                     	;# 
   928  1EC7                     	;# 
   929  1EC8                     	;# 
   930  1EC9                     	;# 
   931  1ECA                     	;# 
   932  1ECB                     	;# 
   933  1ECB                     	;# 
   934  1ECB                     	;# 
   935  1ECC                     	;# 
   936  1ECC                     	;# 
   937  1ECC                     	;# 
   938  1F10                     	;# 
   939  1F11                     	;# 
   940  1F12                     	;# 
   941  1F14                     	;# 
   942  1F15                     	;# 
   943  1F1C                     	;# 
   944  1F1D                     	;# 
   945  1F1E                     	;# 
   946  1F1F                     	;# 
   947  1F20                     	;# 
   948  1F21                     	;# 
   949  1F22                     	;# 
   950  1F23                     	;# 
   951  1F24                     	;# 
   952  1F25                     	;# 
   953  1F26                     	;# 
   954  1F27                     	;# 
   955  1F38                     	;# 
   956  1F39                     	;# 
   957  1F3A                     	;# 
   958  1F3B                     	;# 
   959  1F3C                     	;# 
   960  1F3D                     	;# 
   961  1F3E                     	;# 
   962  1F3F                     	;# 
   963  1F43                     	;# 
   964  1F44                     	;# 
   965  1F45                     	;# 
   966  1F46                     	;# 
   967  1F47                     	;# 
   968  1F48                     	;# 
   969  1F49                     	;# 
   970  1F4A                     	;# 
   971  1F4E                     	;# 
   972  1F4F                     	;# 
   973  1F50                     	;# 
   974  1F51                     	;# 
   975  1F52                     	;# 
   976  1F53                     	;# 
   977  1F54                     	;# 
   978  1F55                     	;# 
   979  1FE4                     	;# 
   980  1FE5                     	;# 
   981  1FE6                     	;# 
   982  1FE7                     	;# 
   983  1FE8                     	;# 
   984  1FE8                     	;# 
   985  1FE9                     	;# 
   986  1FEA                     	;# 
   987  1FEB                     	;# 
   988  1FED                     	;# 
   989  1FEE                     	;# 
   990  1FEF                     	;# 
   991                           
   992                           	psect	stringtext1
   993  1800                     __pstringtext1:
   994  1800                     _toint:
   995  1800  3400               	retlw	0
   996  1801  3400               	retlw	0
   997  1802  3400               	retlw	0
   998  1803  344B               	retlw	75
   999  1804                     __end_of_toint:
  1000  001A                     _LATCbits	set	26
  1001  000B                     _INTCONbits	set	11
  1002  0014                     _TRISCbits	set	20
  1003  0012                     _TRISAbits	set	18
  1004  0013                     _TRISBbits	set	19
  1005  011A                     _TX1REG	set	282
  1006  011B                     _SPBRGL	set	283
  1007  011C                     _SPBRGH	set	284
  1008  011F                     _BAUD1CONbits	set	287
  1009  011D                     _RC1STAbits	set	285
  1010  011E                     _TX1STAbits	set	286
  1011  0495                     _SMT1PR	set	1173
  1012  0499                     _SMT1CON1bits	set	1177
  1013  0498                     _SMT1CON0bits	set	1176
  1014  049B                     _SMT1CLKbits	set	1179
  1015  048F                     _SMT1CPR	set	1167
  1016  0593                     _NCO1CLKbits	set	1427
  1017  0592                     _NCO1CONbits	set	1426
  1018  0591                     _NCO1INCU	set	1425
  1019  0590                     _NCO1INCH	set	1424
  1020  058F                     _NCO1INCL	set	1423
  1021  0714                     _PIR8bits	set	1812
  1022  071E                     _PIE8bits	set	1822
  1023  0895                     _CLKRCONbits	set	2197
  1024  1EAA                     _SMT1SIGPPS	set	7850
  1025  1F4E                     _ANSELCbits	set	8014
  1026  1F38                     _ANSELAbits	set	7992
  1027  1F1F                     _RB7PPS	set	7967
  1028  1F27                     _RC7PPS	set	7975
  1029  1804                     STR_1:
  1030  1804  3425               	retlw	37	;'%'
  1031  1805  346C               	retlw	108	;'l'
  1032  1806  3464               	retlw	100	;'d'
  1033  1807  340A               	retlw	10
  1034  1808  3400               	retlw	0
  1035                           
  1036                           	psect	stringtext2
  1037  1809                     __pstringtext2:
  1038  1809                     STR_2:
  1039  1809  346C               	retlw	108	;'l'
  1040  180A  3464               	retlw	100	;'d'
  1041  180B  3400               	retlw	0
  1042                           
  1043                           	psect	stringtext3
  1044  180C                     __pstringtext3:
  1045  180C                     STR_6:
  1046  180C  346C               	retlw	108	;'l'
  1047  180D  3469               	retlw	105	;'i'
  1048  180E  3400               	retlw	0
  1049                           
  1050                           	psect	stringtext4
  1051  0000                     __pstringtext4:
  1052  1809                     
  1053                           	psect	cinit
  1054  0022                     start_initialization:	
  1055                           ; #config settings
  1056                           
  1057  0022                     __initialization:
  1058                           
  1059                           ; Clear objects allocated to BANK0
  1060  0022  0140               	movlb	0	; select bank0
  1061  0023  01ED               	clrf	__pbssBANK0& (0+127)
  1062  0024  01EE               	clrf	(__pbssBANK0+1)& (0+127)
  1063                           
  1064                           ; Clear objects allocated to BANK1
  1065  0025  30A0               	movlw	low __pbssBANK1
  1066  0026  0084               	movwf	4
  1067  0027  3000               	movlw	high __pbssBANK1
  1068  0028  0085               	movwf	5
  1069  0029  302F               	movlw	47
  1070  002A  3195  2563  3180   	fcall	clear_ram0
  1071  002D                     end_of_initialization:	
  1072                           ;End of C runtime variable initialization code
  1073                           
  1074  002D                     __end_of__initialization:
  1075  002D  107E               	bcf	int$flags,0	;clear compiler interrupt flag (level 1)
  1076  002E  0140               	movlb	0
  1077  002F  318A  2A20         	ljmp	_main	;jump to C main() function
  1078                           
  1079                           	psect	bssBANK0
  1080  006D                     __pbssBANK0:
  1081  006D                     _flags:
  1082  006D                     	ds	2
  1083                           
  1084                           	psect	bssBANK1
  1085  00A0                     __pbssBANK1:
  1086  00A0                     roundf@F528:
  1087  00A0                     	ds	4
  1088  00A4                     _smt2Value:
  1089  00A4                     	ds	4
  1090  00A8                     _nout:
  1091  00A8                     	ds	2
  1092  00AA                     _width:
  1093  00AA                     	ds	2
  1094  00AC                     _prec:
  1095  00AC                     	ds	2
  1096  00AE                     _dataAvailable:
  1097  00AE                     	ds	1
  1098  00AF                     _dbuf:
  1099  00AF                     	ds	32
  1100                           
  1101                           	psect	clrtext
  1102  1563                     clear_ram0:	
  1103                           ;	Called with FSR0 containing the base address, and
  1104                           ;	WREG with the size to clear
  1105                           
  1106  1563  0064               	clrwdt	;clear the watchdog before getting into this loop
  1107  1564                     clrloop0:
  1108  1564  0180               	clrf	0	;clear RAM location pointed to by FSR
  1109  1565  3101               	addfsr 0,1
  1110  1566  0B89               	decfsz	9,f	;Have we reached the end of clearing yet?
  1111  1567  2D64               	goto	clrloop0	;have we reached the end yet?
  1112  1568  3400               	retlw	0	;all done for this memory range, return
  1113                           
  1114                           	psect	cstackBANK1
  1115  00CF                     __pcstackBANK1:
  1116  00CF                     _main$1393:
  1117                           
  1118                           ; 4 bytes @ 0x0
  1119  00CF                     	ds	4
  1120  00D3                     main@temp:
  1121                           
  1122                           ; 4 bytes @ 0x4
  1123  00D3                     	ds	4
  1124                           
  1125                           	psect	cstackCOMMON
  1126  0070                     __pcstackCOMMON:
  1127  0070                     ?_smt_init:
  1128  0070                     ?_uart_init:	
  1129                           ; 1 bytes @ 0x0
  1130                           
  1131  0070                     ?_main:	
  1132                           ; 1 bytes @ 0x0
  1133                           
  1134  0070                     ?_myIsr:	
  1135                           ; 1 bytes @ 0x0
  1136                           
  1137  0070                     ??_myIsr:	
  1138                           ; 1 bytes @ 0x0
  1139                           
  1140  0070                     ?_putch:	
  1141                           ; 1 bytes @ 0x0
  1142                           
  1143                           
  1144                           ; 1 bytes @ 0x0
  1145  0070                     	ds	1
  1146  0071                     ?___flge:
  1147  0071                     ??_smt_init:	
  1148                           ; 1 bit 
  1149                           
  1150  0071                     ??_uart_init:	
  1151                           ; 1 bytes @ 0x1
  1152                           
  1153  0071                     ??_putch:	
  1154                           ; 1 bytes @ 0x1
  1155                           
  1156  0071                     ??___aodiv:	
  1157                           ; 1 bytes @ 0x1
  1158                           
  1159  0071                     ??___aomod:	
  1160                           ; 1 bytes @ 0x1
  1161                           
  1162  0071                     ?__Umul8_16:	
  1163                           ; 1 bytes @ 0x1
  1164                           
  1165  0071                     ?_strlen:	
  1166                           ; 2 bytes @ 0x1
  1167                           
  1168  0071                     ?_strncmp:	
  1169                           ; 2 bytes @ 0x1
  1170                           
  1171  0071                     ?___lmul:	
  1172                           ; 2 bytes @ 0x1
  1173                           
  1174  0071                     ?___flneg:	
  1175                           ; 4 bytes @ 0x1
  1176                           
  1177  0071                     ?___fladd:	
  1178                           ; 4 bytes @ 0x1
  1179                           
  1180  0071                     ?___xxtofl:	
  1181                           ; 4 bytes @ 0x1
  1182                           
  1183  0071                     putch@c:	
  1184                           ; 4 bytes @ 0x1
  1185                           
  1186  0071                     __Umul8_16@multiplicand:	
  1187                           ; 1 bytes @ 0x1
  1188                           
  1189  0071                     strncmp@_l:	
  1190                           ; 1 bytes @ 0x1
  1191                           
  1192  0071                     ___lmul@multiplier:	
  1193                           ; 2 bytes @ 0x1
  1194                           
  1195  0071                     ___flge@ff1:	
  1196                           ; 4 bytes @ 0x1
  1197                           
  1198  0071                     ___flneg@f1:	
  1199                           ; 4 bytes @ 0x1
  1200                           
  1201  0071                     ___fladd@b:	
  1202                           ; 4 bytes @ 0x1
  1203                           
  1204  0071                     ___xxtofl@val:	
  1205                           ; 4 bytes @ 0x1
  1206                           
  1207                           
  1208                           ; 4 bytes @ 0x1
  1209  0071                     	ds	1
  1210  0072                     ?_fputc:
  1211  0072                     ___aodiv@counter:	
  1212                           ; 2 bytes @ 0x2
  1213                           
  1214  0072                     ___aomod@counter:	
  1215                           ; 1 bytes @ 0x2
  1216                           
  1217  0072                     fputc@c:	
  1218                           ; 1 bytes @ 0x2
  1219                           
  1220                           
  1221                           ; 2 bytes @ 0x2
  1222  0072                     	ds	1
  1223  0073                     ??__Umul8_16:
  1224  0073                     ??_strlen:	
  1225                           ; 1 bytes @ 0x3
  1226                           
  1227  0073                     ___aodiv@sign:	
  1228                           ; 1 bytes @ 0x3
  1229                           
  1230  0073                     ___aomod@sign:	
  1231                           ; 1 bytes @ 0x3
  1232                           
  1233  0073                     strncmp@_r:	
  1234                           ; 1 bytes @ 0x3
  1235                           
  1236                           
  1237                           ; 2 bytes @ 0x3
  1238  0073                     	ds	1
  1239  0074                     ?_abs:
  1240  0074                     fputc@fp:	
  1241                           ; 2 bytes @ 0x4
  1242                           
  1243  0074                     strlen@a:	
  1244                           ; 1 bytes @ 0x4
  1245                           
  1246  0074                     abs@a:	
  1247                           ; 1 bytes @ 0x4
  1248                           
  1249  0074                     ___aodiv@quotient:	
  1250                           ; 2 bytes @ 0x4
  1251                           
  1252                           
  1253                           ; 8 bytes @ 0x4
  1254  0074                     	ds	1
  1255  0075                     ??_fputc:
  1256  0075                     ??___flneg:	
  1257                           ; 1 bytes @ 0x5
  1258                           
  1259  0075                     ??___xxtofl:	
  1260                           ; 1 bytes @ 0x5
  1261                           
  1262  0075                     strlen@s:	
  1263                           ; 1 bytes @ 0x5
  1264                           
  1265  0075                     __Umul8_16@product:	
  1266                           ; 1 bytes @ 0x5
  1267                           
  1268  0075                     strncmp@n:	
  1269                           ; 2 bytes @ 0x5
  1270                           
  1271  0075                     ___lmul@multiplicand:	
  1272                           ; 2 bytes @ 0x5
  1273                           
  1274  0075                     ___flge@ff2:	
  1275                           ; 4 bytes @ 0x5
  1276                           
  1277  0075                     ___fladd@a:	
  1278                           ; 4 bytes @ 0x5
  1279                           
  1280                           
  1281                           ; 4 bytes @ 0x5
  1282  0075                     	ds	1
  1283  0076                     ??_abs:
  1284                           
  1285                           ; 1 bytes @ 0x6
  1286  0076                     	ds	1
  1287  0077                     ??_strncmp:
  1288  0077                     __Umul8_16@word_mpld:	
  1289                           ; 1 bytes @ 0x7
  1290                           
  1291                           
  1292                           ; 2 bytes @ 0x7
  1293  0077                     	ds	1
  1294  0078                     strncmp@l:
  1295                           
  1296                           ; 2 bytes @ 0x8
  1297  0078                     	ds	1
  1298  0079                     ??___lmul:
  1299  0079                     ??___flge:	
  1300                           ; 1 bytes @ 0x9
  1301                           
  1302  0079                     ___fladd@signs:	
  1303                           ; 1 bytes @ 0x9
  1304                           
  1305  0079                     __Umul8_16@multiplier:	
  1306                           ; 1 bytes @ 0x9
  1307                           
  1308  0079                     ___lmul@product:	
  1309                           ; 1 bytes @ 0x9
  1310                           
  1311                           
  1312                           ; 4 bytes @ 0x9
  1313  0079                     	ds	1
  1314  007A                     ?_fputs:
  1315  007A                     ___fladd@aexp:	
  1316                           ; 2 bytes @ 0xA
  1317                           
  1318  007A                     fputs@fp:	
  1319                           ; 1 bytes @ 0xA
  1320                           
  1321  007A                     strncmp@r:	
  1322                           ; 1 bytes @ 0xA
  1323                           
  1324                           
  1325                           ; 2 bytes @ 0xA
  1326  007A                     	ds	1
  1327  007B                     ??_pad:
  1328  007B                     ___fladd@bexp:	
  1329                           ; 1 bytes @ 0xB
  1330                           
  1331                           
  1332                           ; 1 bytes @ 0xB
  1333  007B                     	ds	1
  1334  007C                     ??_printf:
  1335  007C                     ___fladd@grs:	
  1336                           ; 1 bytes @ 0xC
  1337                           
  1338                           
  1339                           ; 1 bytes @ 0xC
  1340  007C                     	ds	1
  1341  007D                     ??_lroundf:
  1342  007D                     ??_main:	
  1343                           ; 1 bytes @ 0xD
  1344                           
  1345  007D                     ??___flsub:	
  1346                           ; 1 bytes @ 0xD
  1347                           
  1348                           
  1349                           	psect	cstackBANK0
  1350  0020                     __pcstackBANK0:	
  1351                           ; 1 bytes @ 0xD
  1352                           
  1353  0020                     ??_fputs:
  1354  0020                     ??___fladd:	
  1355                           ; 1 bytes @ 0x0
  1356                           
  1357  0020                     ?___aodiv:	
  1358                           ; 1 bytes @ 0x0
  1359                           
  1360  0020                     ?___aomod:	
  1361                           ; 8 bytes @ 0x0
  1362                           
  1363  0020                     ___xxtofl@sign:	
  1364                           ; 8 bytes @ 0x0
  1365                           
  1366  0020                     ___aodiv@divisor:	
  1367                           ; 1 bytes @ 0x0
  1368                           
  1369  0020                     ___aomod@divisor:	
  1370                           ; 8 bytes @ 0x0
  1371                           
  1372                           
  1373                           ; 8 bytes @ 0x0
  1374  0020                     	ds	1
  1375  0021                     ___xxtofl@exp:
  1376                           
  1377                           ; 1 bytes @ 0x1
  1378  0021                     	ds	1
  1379  0022                     ___xxtofl@arg:
  1380                           
  1381                           ; 4 bytes @ 0x2
  1382  0022                     	ds	1
  1383  0023                     fputs@c:
  1384                           
  1385                           ; 1 bytes @ 0x3
  1386  0023                     	ds	1
  1387  0024                     fputs@i:
  1388                           
  1389                           ; 2 bytes @ 0x4
  1390  0024                     	ds	2
  1391  0026                     ?___flmul:
  1392  0026                     fputs@s:	
  1393                           ; 4 bytes @ 0x6
  1394                           
  1395  0026                     ___flmul@b:	
  1396                           ; 1 bytes @ 0x6
  1397                           
  1398                           
  1399                           ; 4 bytes @ 0x6
  1400  0026                     	ds	1
  1401  0027                     ?_pad:
  1402  0027                     pad@buf:	
  1403                           ; 2 bytes @ 0x7
  1404                           
  1405                           
  1406                           ; 1 bytes @ 0x7
  1407  0027                     	ds	1
  1408  0028                     ?___flsub:
  1409  0028                     pad@p:	
  1410                           ; 4 bytes @ 0x8
  1411                           
  1412  0028                     ___flsub@a:	
  1413                           ; 2 bytes @ 0x8
  1414                           
  1415  0028                     ___aodiv@dividend:	
  1416                           ; 4 bytes @ 0x8
  1417                           
  1418  0028                     ___aomod@dividend:	
  1419                           ; 8 bytes @ 0x8
  1420                           
  1421                           
  1422                           ; 8 bytes @ 0x8
  1423  0028                     	ds	2
  1424  002A                     pad@i:
  1425  002A                     ___flmul@a:	
  1426                           ; 2 bytes @ 0xA
  1427                           
  1428                           
  1429                           ; 4 bytes @ 0xA
  1430  002A                     	ds	2
  1431  002C                     pad@w:
  1432  002C                     ___flsub@b:	
  1433                           ; 2 bytes @ 0xC
  1434                           
  1435                           
  1436                           ; 4 bytes @ 0xC
  1437  002C                     	ds	2
  1438  002E                     ??___flmul:
  1439  002E                     pad@fp:	
  1440                           ; 1 bytes @ 0xE
  1441                           
  1442                           
  1443                           ; 1 bytes @ 0xE
  1444  002E                     	ds	2
  1445  0030                     ?_setNcoFreq:
  1446  0030                     ?_dtoa:	
  1447                           ; 1 bytes @ 0x10
  1448                           
  1449  0030                     setNcoFreq@freq:	
  1450                           ; 2 bytes @ 0x10
  1451                           
  1452  0030                     dtoa@d:	
  1453                           ; 4 bytes @ 0x10
  1454                           
  1455                           
  1456                           ; 8 bytes @ 0x10
  1457  0030                     	ds	3
  1458  0033                     ___flmul@sign:
  1459                           
  1460                           ; 1 bytes @ 0x13
  1461  0033                     	ds	1
  1462  0034                     ??_setNcoFreq:
  1463  0034                     ___flmul@grs:	
  1464                           ; 1 bytes @ 0x14
  1465                           
  1466                           
  1467                           ; 4 bytes @ 0x14
  1468  0034                     	ds	4
  1469  0038                     ??_dtoa:
  1470  0038                     ___flmul@aexp:	
  1471                           ; 1 bytes @ 0x18
  1472                           
  1473                           
  1474                           ; 1 bytes @ 0x18
  1475  0038                     	ds	1
  1476  0039                     ___flmul@bexp:
  1477                           
  1478                           ; 1 bytes @ 0x19
  1479  0039                     	ds	1
  1480  003A                     ___flmul@prod:
  1481                           
  1482                           ; 4 bytes @ 0x1A
  1483  003A                     	ds	1
  1484  003B                     _dtoa$1139:
  1485                           
  1486                           ; 2 bytes @ 0x1B
  1487  003B                     	ds	1
  1488  003C                     setNcoFreq@a:
  1489                           
  1490                           ; 4 bytes @ 0x1C
  1491  003C                     	ds	1
  1492  003D                     dtoa@p:
  1493                           
  1494                           ; 2 bytes @ 0x1D
  1495  003D                     	ds	1
  1496  003E                     ___flmul@temp:
  1497                           
  1498                           ; 2 bytes @ 0x1E
  1499  003E                     	ds	1
  1500  003F                     dtoa@fp:
  1501                           
  1502                           ; 1 bytes @ 0x1F
  1503  003F                     	ds	1
  1504  0040                     ?_roundf:
  1505  0040                     ?___fldiv:	
  1506                           ; 4 bytes @ 0x20
  1507                           
  1508  0040                     dtoa@w:	
  1509                           ; 4 bytes @ 0x20
  1510                           
  1511  0040                     setNcoFreq@b:	
  1512                           ; 2 bytes @ 0x20
  1513                           
  1514  0040                     ___fldiv@a:	
  1515                           ; 4 bytes @ 0x20
  1516                           
  1517  0040                     roundf@x:	
  1518                           ; 4 bytes @ 0x20
  1519                           
  1520                           
  1521                           ; 4 bytes @ 0x20
  1522  0040                     	ds	2
  1523  0042                     dtoa@s:
  1524                           
  1525                           ; 2 bytes @ 0x22
  1526  0042                     	ds	2
  1527  0044                     ??_roundf:
  1528  0044                     setNcoFreq@c:	
  1529                           ; 1 bytes @ 0x24
  1530                           
  1531  0044                     ___fldiv@b:	
  1532                           ; 4 bytes @ 0x24
  1533                           
  1534  0044                     dtoa@n:	
  1535                           ; 4 bytes @ 0x24
  1536                           
  1537                           
  1538                           ; 8 bytes @ 0x24
  1539  0044                     	ds	4
  1540  0048                     ??___fldiv:
  1541  0048                     setNcoFreq@temp:	
  1542                           ; 1 bytes @ 0x28
  1543                           
  1544  0048                     _roundf$1395:	
  1545                           ; 4 bytes @ 0x28
  1546                           
  1547                           
  1548                           ; 4 bytes @ 0x28
  1549  0048                     	ds	4
  1550  004C                     dtoa@i:
  1551  004C                     roundf@e:	
  1552                           ; 2 bytes @ 0x2C
  1553                           
  1554                           
  1555                           ; 2 bytes @ 0x2C
  1556  004C                     	ds	1
  1557  004D                     ___fldiv@rem:
  1558                           
  1559                           ; 4 bytes @ 0x2D
  1560  004D                     	ds	1
  1561  004E                     ?_vfpfcnvrt:
  1562  004E                     vfpfcnvrt@fmt:	
  1563                           ; 2 bytes @ 0x2E
  1564                           
  1565  004E                     _roundf$1394:	
  1566                           ; 1 bytes @ 0x2E
  1567                           
  1568                           
  1569                           ; 4 bytes @ 0x2E
  1570  004E                     	ds	1
  1571  004F                     vfpfcnvrt@ap:
  1572                           
  1573                           ; 1 bytes @ 0x2F
  1574  004F                     	ds	1
  1575  0050                     ??_vfpfcnvrt:
  1576                           
  1577                           ; 1 bytes @ 0x30
  1578  0050                     	ds	1
  1579  0051                     ___fldiv@sign:
  1580                           
  1581                           ; 1 bytes @ 0x31
  1582  0051                     	ds	1
  1583  0052                     ___fldiv@new_exp:
  1584  0052                     roundf@u:	
  1585                           ; 2 bytes @ 0x32
  1586                           
  1587                           
  1588                           ; 4 bytes @ 0x32
  1589  0052                     	ds	2
  1590  0054                     ___fldiv@grs:
  1591                           
  1592                           ; 4 bytes @ 0x34
  1593  0054                     	ds	1
  1594  0055                     vfpfcnvrt@ll:
  1595                           
  1596                           ; 8 bytes @ 0x35
  1597  0055                     	ds	1
  1598  0056                     roundf@y:
  1599                           
  1600                           ; 4 bytes @ 0x36
  1601  0056                     	ds	2
  1602  0058                     ___fldiv@bexp:
  1603                           
  1604                           ; 1 bytes @ 0x38
  1605  0058                     	ds	1
  1606  0059                     ___fldiv@aexp:
  1607                           
  1608                           ; 1 bytes @ 0x39
  1609  0059                     	ds	1
  1610  005A                     ?___fltol:
  1611  005A                     ___fltol@f1:	
  1612                           ; 4 bytes @ 0x3A
  1613                           
  1614                           
  1615                           ; 4 bytes @ 0x3A
  1616  005A                     	ds	3
  1617  005D                     vfpfcnvrt@fp:
  1618                           
  1619                           ; 1 bytes @ 0x3D
  1620  005D                     	ds	1
  1621  005E                     ??___fltol:
  1622  005E                     ?_vfprintf:	
  1623                           ; 1 bytes @ 0x3E
  1624                           
  1625  005E                     vfprintf@fmt:	
  1626                           ; 2 bytes @ 0x3E
  1627                           
  1628                           
  1629                           ; 2 bytes @ 0x3E
  1630  005E                     	ds	2
  1631  0060                     vfprintf@ap:
  1632                           
  1633                           ; 1 bytes @ 0x40
  1634  0060                     	ds	1
  1635  0061                     ??_vfprintf:
  1636                           
  1637                           ; 1 bytes @ 0x41
  1638  0061                     	ds	2
  1639  0063                     ___fltol@sign1:
  1640  0063                     vfprintf@fp:	
  1641                           ; 1 bytes @ 0x43
  1642                           
  1643                           
  1644                           ; 1 bytes @ 0x43
  1645  0063                     	ds	1
  1646  0064                     ___fltol@exp1:
  1647  0064                     vfprintf@cfmt:	
  1648                           ; 1 bytes @ 0x44
  1649                           
  1650                           
  1651                           ; 2 bytes @ 0x44
  1652  0064                     	ds	1
  1653  0065                     ?_lroundf:
  1654  0065                     lroundf@x:	
  1655                           ; 4 bytes @ 0x45
  1656                           
  1657                           
  1658                           ; 4 bytes @ 0x45
  1659  0065                     	ds	1
  1660  0066                     ?_printf:
  1661  0066                     printf@fmt:	
  1662                           ; 2 bytes @ 0x46
  1663                           
  1664                           
  1665                           ; 2 bytes @ 0x46
  1666  0066                     	ds	6
  1667  006C                     printf@ap:
  1668                           
  1669                           ; 1 bytes @ 0x4C
  1670  006C                     	ds	1
  1671                           
  1672                           	psect	maintext
  1673  0A20                     __pmaintext:	
  1674 ;;
  1675 ;;Main: autosize = 0, tempsize = 0, incstack = 0, save=0
  1676 ;;
  1677 ;; *************** function _main *****************
  1678 ;; Defined at:
  1679 ;;		line 96 in file "newmain.c"
  1680 ;; Parameters:    Size  Location     Type
  1681 ;;		None
  1682 ;; Auto vars:     Size  Location     Type
  1683 ;;  temp            4    4[BANK1 ] unsigned long 
  1684 ;; Return value:  Size  Location     Type
  1685 ;;                  1    wreg      void 
  1686 ;; Registers used:
  1687 ;;		wreg, fsr0l, fsr0h, fsr1l, fsr1h, status,2, status,0, pclath, cstack
  1688 ;; Tracked objects:
  1689 ;;		On entry : B3F/0
  1690 ;;		On exit  : 0/0
  1691 ;;		Unchanged: 0/0
  1692 ;; Data sizes:     COMMON   BANK0   BANK1   BANK2   BANK3   BANK4   BANK5   BANK6   BANK7   BANK8   BANK9  BANK10  BANK1
      +1  BANK12  BANK13  BANK14  BANK15  BANK16  BANK17  BANK18  BANK19  BANK20  BANK21  BANK22  BANK23  BANK24  BANK25
  1693 ;;      Params:         0       0       0       0       0       0       0       0       0       0       0       0       
      +0       0       0       0       0       0       0       0       0       0       0       0       0       0       0
  1694 ;;      Locals:         0       0       8       0       0       0       0       0       0       0       0       0       
      +0       0       0       0       0       0       0       0       0       0       0       0       0       0       0
  1695 ;;      Temps:          0       0       0       0       0       0       0       0       0       0       0       0       
      +0       0       0       0       0       0       0       0       0       0       0       0       0       0       0
  1696 ;;      Totals:         0       0       8       0       0       0       0       0       0       0       0       0       
      +0       0       0       0       0       0       0       0       0       0       0       0       0       0       0
  1697 ;;Total ram usage:        8 bytes
  1698 ;; Hardware stack levels required when called: 9
  1699 ;; This function calls:
  1700 ;;		___fldiv
  1701 ;;		___flmul
  1702 ;;		___lmul
  1703 ;;		___xxtofl
  1704 ;;		_lroundf
  1705 ;;		_printf
  1706 ;;		_setNcoFreq
  1707 ;;		_smt_init
  1708 ;;		_uart_init
  1709 ;; This function is called by:
  1710 ;;		Startup code after reset
  1711 ;; This function uses a non-reentrant model
  1712 ;;
  1713                           
  1714                           
  1715                           ;psect for function _main
  1716  0A20                     _main:
  1717  0A20                     l2848:	
  1718                           ;incstack = 0
  1719                           ; Regs used in _main: [wreg-fsr1h+status,2+status,0+pclath+cstack]
  1720                           
  1721                           
  1722                           ;newmain.c: 97:     RB7PPS = 0x18;
  1723  0A20  3018               	movlw	24
  1724  0A21  017E               	movlb	62	; select bank62
  1725  0A22  009F               	movwf	31	;volatile
  1726  0A23                     l2850:
  1727                           
  1728                           ;newmain.c: 98:     TRISBbits.TRISB7 = 0;
  1729  0A23  0140               	movlb	0	; select bank0
  1730  0A24  1393               	bcf	19,7	;volatile
  1731  0A25                     l2852:
  1732                           
  1733                           ;newmain.c: 99:     TRISAbits.TRISA4 = 1;
  1734  0A25  1612               	bsf	18,4	;volatile
  1735  0A26                     l2854:
  1736                           
  1737                           ;newmain.c: 100:     ANSELAbits.ANSA4 = 0;
  1738  0A26  017E               	movlb	62	; select bank62
  1739  0A27  1238               	bcf	56,4	;volatile
  1740  0A28                     l2856:
  1741                           
  1742                           ;newmain.c: 101:     TRISCbits.TRISC7 = 1;
  1743  0A28  0140               	movlb	0	; select bank0
  1744  0A29  1794               	bsf	20,7	;volatile
  1745  0A2A                     l2858:
  1746                           
  1747                           ;newmain.c: 102:     TRISCbits.TRISC4 = 0;
  1748  0A2A  1214               	bcf	20,4	;volatile
  1749  0A2B                     l2860:
  1750                           
  1751                           ;newmain.c: 105:     TRISCbits.TRISC6 = 1;
  1752  0A2B  1714               	bsf	20,6	;volatile
  1753  0A2C                     l2862:
  1754                           
  1755                           ;newmain.c: 106:     ANSELCbits.ANSC6 = 0;
  1756  0A2C  017E               	movlb	62	; select bank62
  1757  0A2D  134E               	bcf	78,6	;volatile
  1758  0A2E                     l2864:
  1759                           
  1760                           ;newmain.c: 109:     CLKRCONbits.CLKREN = 1;
  1761  0A2E  0151               	movlb	17	; select bank17
  1762  0A2F  1795               	bsf	21,7	;volatile
  1763  0A30                     l2866:
  1764                           
  1765                           ;newmain.c: 110:     CLKRCONbits.CLKRDIV = 0b110;
  1766  0A30  0815               	movf	21,w	;volatile
  1767  0A31  39F8               	andlw	-8
  1768  0A32  3806               	iorlw	6
  1769  0A33  0095               	movwf	21	;volatile
  1770  0A34                     l2868:
  1771                           
  1772                           ;newmain.c: 112:     NCO1CONbits.EN = 1;
  1773  0A34  014B               	movlb	11	; select bank11
  1774  0A35  1792               	bsf	18,7	;volatile
  1775  0A36                     l2870:
  1776                           
  1777                           ;newmain.c: 113:     NCO1CLKbits.CKS = 0b0110;
  1778  0A36  0813               	movf	19,w	;volatile
  1779  0A37  39F0               	andlw	-16
  1780  0A38  3806               	iorlw	6
  1781  0A39  0093               	movwf	19	;volatile
  1782  0A3A                     l2872:
  1783                           
  1784                           ;newmain.c: 114:     INTCONbits.GIE = 1;
  1785  0A3A  178B               	bsf	11,7	;volatile
  1786  0A3B                     l2874:
  1787                           
  1788                           ;newmain.c: 115:     INTCONbits.PEIE = 1;
  1789  0A3B  170B               	bsf	11,6	;volatile
  1790  0A3C                     l2876:
  1791                           
  1792                           ;newmain.c: 116:     PIE8bits.SMT1PRAIE = 1;
  1793  0A3C  014E               	movlb	14	; select bank14
  1794  0A3D  149E               	bsf	30,1	;volatile
  1795  0A3E                     l2878:
  1796                           
  1797                           ;newmain.c: 117:     setNcoFreq(5000);
  1798  0A3E  3000               	movlw	0
  1799  0A3F  0140               	movlb	0	; select bank0
  1800  0A40  00B3               	movwf	setNcoFreq@freq+3
  1801  0A41  3000               	movlw	0
  1802  0A42  00B2               	movwf	setNcoFreq@freq+2
  1803  0A43  3013               	movlw	19
  1804  0A44  00B1               	movwf	setNcoFreq@freq+1
  1805  0A45  3088               	movlw	136
  1806  0A46  00B0               	movwf	setNcoFreq@freq
  1807  0A47  3189  2168  318A   	fcall	_setNcoFreq
  1808  0A4A                     l2880:
  1809                           
  1810                           ;newmain.c: 118:     smt_init();
  1811  0A4A  3195  258F  318A   	fcall	_smt_init
  1812  0A4D                     l2882:
  1813                           
  1814                           ;newmain.c: 119:     uart_init();
  1815  0A4D  3187  27F3  318A   	fcall	_uart_init
  1816  0A50                     l2884:
  1817                           
  1818                           ;newmain.c: 121:         if(dataAvailable)
  1819  0A50  0141               	movlb	1	; select bank1
  1820  0A51  082E               	movf	_dataAvailable^(0+128),w	;volatile
  1821  0A52  1903               	btfsc	3,2
  1822  0A53  2A55               	goto	u4211
  1823  0A54  2A56               	goto	u4210
  1824  0A55                     u4211:
  1825  0A55  2A50               	goto	l2884
  1826  0A56                     u4210:
  1827  0A56                     l2886:
  1828                           
  1829                           ;newmain.c: 122:         {;newmain.c: 123:            unsigned long temp = lroundf(1000/
      +                          ((0.000000125)*(SMT1CPR&0xffffff)));
  1830  0A56  3034               	movlw	52
  1831  0A57  0140               	movlb	0	; select bank0
  1832  0A58  00A9               	movwf	___flmul@b+3
  1833  0A59  3006               	movlw	6
  1834  0A5A  00A8               	movwf	___flmul@b+2
  1835  0A5B  3037               	movlw	55
  1836  0A5C  00A7               	movwf	___flmul@b+1
  1837  0A5D  30BD               	movlw	189
  1838  0A5E  00A6               	movwf	___flmul@b
  1839  0A5F  0149               	movlb	9	; select bank9
  1840  0A60  080F               	movf	15,w	;volatile
  1841  0A61  00F1               	movwf	___xxtofl@val
  1842  0A62  0810               	movf	16,w	;volatile
  1843  0A63  00F2               	movwf	___xxtofl@val+1
  1844  0A64  0811               	movf	17,w	;volatile
  1845  0A65  00F3               	movwf	___xxtofl@val+2
  1846  0A66  01F4               	clrf	___xxtofl@val+3
  1847  0A67  3001               	movlw	1
  1848  0A68  3188  20BB  318A   	fcall	___xxtofl
  1849  0A6B  0874               	movf	?___xxtofl+3,w
  1850  0A6C  0140               	movlb	0	; select bank0
  1851  0A6D  00AD               	movwf	___flmul@a+3
  1852  0A6E  0873               	movf	?___xxtofl+2,w
  1853  0A6F  00AC               	movwf	___flmul@a+2
  1854  0A70  0872               	movf	?___xxtofl+1,w
  1855  0A71  00AB               	movwf	___flmul@a+1
  1856  0A72  0871               	movf	?___xxtofl,w
  1857  0A73  00AA               	movwf	___flmul@a
  1858  0A74  3180  2031  318A   	fcall	___flmul
  1859  0A77  0140               	movlb	0	; select bank0
  1860  0A78  0829               	movf	?___flmul+3,w
  1861  0A79  00C3               	movwf	___fldiv@a+3
  1862  0A7A  0828               	movf	?___flmul+2,w
  1863  0A7B  00C2               	movwf	___fldiv@a+2
  1864  0A7C  0827               	movf	?___flmul+1,w
  1865  0A7D  00C1               	movwf	___fldiv@a+1
  1866  0A7E  0826               	movf	?___flmul,w
  1867  0A7F  00C0               	movwf	___fldiv@a
  1868  0A80  3044               	movlw	68
  1869  0A81  00C7               	movwf	___fldiv@b+3
  1870  0A82  307A               	movlw	122
  1871  0A83  00C6               	movwf	___fldiv@b+2
  1872  0A84  3000               	movlw	0
  1873  0A85  00C5               	movwf	___fldiv@b+1
  1874  0A86  3000               	movlw	0
  1875  0A87  00C4               	movwf	___fldiv@b
  1876  0A88  318E  264C  318A   	fcall	___fldiv
  1877  0A8B  0140               	movlb	0	; select bank0
  1878  0A8C  0843               	movf	?___fldiv+3,w
  1879  0A8D  0141               	movlb	1	; select bank1
  1880  0A8E  00D2               	movwf	(_main$1393+3)^(0+128)
  1881  0A8F  0140               	movlb	0	; select bank0
  1882  0A90  0842               	movf	?___fldiv+2,w
  1883  0A91  0141               	movlb	1	; select bank1
  1884  0A92  00D1               	movwf	(_main$1393+2)^(0+128)
  1885  0A93  0140               	movlb	0	; select bank0
  1886  0A94  0841               	movf	?___fldiv+1,w
  1887  0A95  0141               	movlb	1	; select bank1
  1888  0A96  00D0               	movwf	(_main$1393+1)^(0+128)
  1889  0A97  0140               	movlb	0	; select bank0
  1890  0A98  0840               	movf	?___fldiv,w
  1891  0A99  0141               	movlb	1	; select bank1
  1892  0A9A  00CF               	movwf	_main$1393^(0+128)
  1893                           
  1894                           ;newmain.c: 122:         {;newmain.c: 123:            unsigned long temp = lroundf(1000/
      +                          ((0.000000125)*(SMT1CPR&0xffffff)));
  1895  0A9B  0852               	movf	(_main$1393+3)^(0+128),w
  1896  0A9C  0140               	movlb	0	; select bank0
  1897  0A9D  00E8               	movwf	lroundf@x+3
  1898  0A9E  0141               	movlb	1	; select bank1
  1899  0A9F  0851               	movf	(_main$1393+2)^(0+128),w
  1900  0AA0  0140               	movlb	0	; select bank0
  1901  0AA1  00E7               	movwf	lroundf@x+2
  1902  0AA2  0141               	movlb	1	; select bank1
  1903  0AA3  0850               	movf	(_main$1393+1)^(0+128),w
  1904  0AA4  0140               	movlb	0	; select bank0
  1905  0AA5  00E6               	movwf	lroundf@x+1
  1906  0AA6  0141               	movlb	1	; select bank1
  1907  0AA7  084F               	movf	_main$1393^(0+128),w
  1908  0AA8  0140               	movlb	0	; select bank0
  1909  0AA9  00E5               	movwf	lroundf@x
  1910  0AAA  3195  25FA  318A   	fcall	_lroundf
  1911  0AAD  0140               	movlb	0	; select bank0
  1912  0AAE  0868               	movf	?_lroundf+3,w
  1913  0AAF  0141               	movlb	1	; select bank1
  1914  0AB0  00D6               	movwf	(main@temp+3)^(0+128)
  1915  0AB1  0140               	movlb	0	; select bank0
  1916  0AB2  0867               	movf	?_lroundf+2,w
  1917  0AB3  0141               	movlb	1	; select bank1
  1918  0AB4  00D5               	movwf	(main@temp+2)^(0+128)
  1919  0AB5  0140               	movlb	0	; select bank0
  1920  0AB6  0866               	movf	?_lroundf+1,w
  1921  0AB7  0141               	movlb	1	; select bank1
  1922  0AB8  00D4               	movwf	(main@temp+1)^(0+128)
  1923  0AB9  0140               	movlb	0	; select bank0
  1924  0ABA  0865               	movf	?_lroundf,w
  1925  0ABB  0141               	movlb	1	; select bank1
  1926  0ABC  00D3               	movwf	main@temp^(0+128)
  1927  0ABD                     l2888:
  1928                           
  1929                           ;newmain.c: 124:             setNcoFreq(temp*50);
  1930  0ABD  0856               	movf	(main@temp+3)^(0+128),w
  1931  0ABE  00F4               	movwf	___lmul@multiplier+3
  1932  0ABF  0855               	movf	(main@temp+2)^(0+128),w
  1933  0AC0  00F3               	movwf	___lmul@multiplier+2
  1934  0AC1  0854               	movf	(main@temp+1)^(0+128),w
  1935  0AC2  00F2               	movwf	___lmul@multiplier+1
  1936  0AC3  0853               	movf	main@temp^(0+128),w
  1937  0AC4  00F1               	movwf	___lmul@multiplier
  1938  0AC5  3000               	movlw	0
  1939  0AC6  00F8               	movwf	___lmul@multiplicand+3
  1940  0AC7  3000               	movlw	0
  1941  0AC8  00F7               	movwf	___lmul@multiplicand+2
  1942  0AC9  3000               	movlw	0
  1943  0ACA  00F6               	movwf	___lmul@multiplicand+1
  1944  0ACB  3032               	movlw	50
  1945  0ACC  00F5               	movwf	___lmul@multiplicand
  1946  0ACD  3196  2667  318A   	fcall	___lmul
  1947  0AD0  0874               	movf	?___lmul+3,w
  1948  0AD1  0140               	movlb	0	; select bank0
  1949  0AD2  00B3               	movwf	setNcoFreq@freq+3
  1950  0AD3  0873               	movf	?___lmul+2,w
  1951  0AD4  00B2               	movwf	setNcoFreq@freq+2
  1952  0AD5  0872               	movf	?___lmul+1,w
  1953  0AD6  00B1               	movwf	setNcoFreq@freq+1
  1954  0AD7  0871               	movf	?___lmul,w
  1955  0AD8  00B0               	movwf	setNcoFreq@freq
  1956  0AD9  3189  2168  318A   	fcall	_setNcoFreq
  1957  0ADC                     l2890:
  1958                           
  1959                           ;newmain.c: 125:             printf("%ld\n",temp);
  1960  0ADC  3004               	movlw	low (STR_1| (0+32768))
  1961  0ADD  0140               	movlb	0	; select bank0
  1962  0ADE  00E6               	movwf	printf@fmt
  1963  0ADF  3098               	movlw	high (STR_1| (0+32768))
  1964  0AE0  00E7               	movwf	printf@fmt+1
  1965  0AE1  0141               	movlb	1	; select bank1
  1966  0AE2  0856               	movf	(main@temp+3)^(0+128),w
  1967  0AE3  0140               	movlb	0	; select bank0
  1968  0AE4  00EB               	movwf	?_printf+5
  1969  0AE5  0141               	movlb	1	; select bank1
  1970  0AE6  0855               	movf	(main@temp+2)^(0+128),w
  1971  0AE7  0140               	movlb	0	; select bank0
  1972  0AE8  00EA               	movwf	?_printf+4
  1973  0AE9  0141               	movlb	1	; select bank1
  1974  0AEA  0854               	movf	(main@temp+1)^(0+128),w
  1975  0AEB  0140               	movlb	0	; select bank0
  1976  0AEC  00E9               	movwf	?_printf+3
  1977  0AED  0141               	movlb	1	; select bank1
  1978  0AEE  0853               	movf	main@temp^(0+128),w
  1979  0AEF  0140               	movlb	0	; select bank0
  1980  0AF0  00E8               	movwf	?_printf+2
  1981  0AF1  3195  257D  318A   	fcall	_printf
  1982  0AF4  2A50               	goto	l2884
  1983  0AF5  3180  2820         	ljmp	start
  1984  0AF7                     __end_of_main:
  1985                           
  1986                           	psect	text1
  1987  07F3                     __ptext1:	
  1988 ;; *************** function _uart_init *****************
  1989 ;; Defined at:
  1990 ;;		line 83 in file "newmain.c"
  1991 ;; Parameters:    Size  Location     Type
  1992 ;;		None
  1993 ;; Auto vars:     Size  Location     Type
  1994 ;;		None
  1995 ;; Return value:  Size  Location     Type
  1996 ;;                  1    wreg      void 
  1997 ;; Registers used:
  1998 ;;		wreg, status,2
  1999 ;; Tracked objects:
  2000 ;;		On entry : 0/0
  2001 ;;		On exit  : 0/0
  2002 ;;		Unchanged: 0/0
  2003 ;; Data sizes:     COMMON   BANK0   BANK1   BANK2   BANK3   BANK4   BANK5   BANK6   BANK7   BANK8   BANK9  BANK10  BANK1
      +1  BANK12  BANK13  BANK14  BANK15  BANK16  BANK17  BANK18  BANK19  BANK20  BANK21  BANK22  BANK23  BANK24  BANK25
  2004 ;;      Params:         0       0       0       0       0       0       0       0       0       0       0       0       
      +0       0       0       0       0       0       0       0       0       0       0       0       0       0       0
  2005 ;;      Locals:         0       0       0       0       0       0       0       0       0       0       0       0       
      +0       0       0       0       0       0       0       0       0       0       0       0       0       0       0
  2006 ;;      Temps:          0       0       0       0       0       0       0       0       0       0       0       0       
      +0       0       0       0       0       0       0       0       0       0       0       0       0       0       0
  2007 ;;      Totals:         0       0       0       0       0       0       0       0       0       0       0       0       
      +0       0       0       0       0       0       0       0       0       0       0       0       0       0       0
  2008 ;;Total ram usage:        0 bytes
  2009 ;; Hardware stack levels used: 1
  2010 ;; Hardware stack levels required when called: 1
  2011 ;; This function calls:
  2012 ;;		Nothing
  2013 ;; This function is called by:
  2014 ;;		_main
  2015 ;; This function uses a non-reentrant model
  2016 ;;
  2017                           
  2018                           
  2019                           ;psect for function _uart_init
  2020  07F3                     _uart_init:
  2021  07F3                     l2632:	
  2022                           ;incstack = 0
  2023                           ; Regs used in _uart_init: [wreg+status,2]
  2024                           
  2025                           
  2026                           ;newmain.c: 84:     TX1STAbits.TXEN = 1;
  2027  07F3  0142               	movlb	2	; select bank2
  2028  07F4  169E               	bsf	30,5	;volatile
  2029                           
  2030                           ;newmain.c: 85:     TX1STAbits.BRGH = 1;
  2031  07F5  151E               	bsf	30,2	;volatile
  2032                           
  2033                           ;newmain.c: 86:     RC1STAbits.SPEN = 1;
  2034  07F6  179D               	bsf	29,7	;volatile
  2035                           
  2036                           ;newmain.c: 87:     BAUD1CONbits.BRG16 = 1;
  2037  07F7  159F               	bsf	31,3	;volatile
  2038  07F8                     l2634:
  2039                           
  2040                           ;newmain.c: 88:     SPBRGH = 0;
  2041  07F8  019C               	clrf	28	;volatile
  2042  07F9                     l2636:
  2043                           
  2044                           ;newmain.c: 89:     SPBRGL = 207;
  2045  07F9  30CF               	movlw	207
  2046  07FA  009B               	movwf	27	;volatile
  2047  07FB                     l2638:
  2048                           
  2049                           ;newmain.c: 90:     RC7PPS = 0b1111;
  2050  07FB  300F               	movlw	15
  2051  07FC  017E               	movlb	62	; select bank62
  2052  07FD  00A7               	movwf	39	;volatile
  2053  07FE                     l71:
  2054  07FE  0008               	return
  2055  07FF                     __end_of_uart_init:
  2056                           
  2057                           	psect	text2
  2058  158F                     __ptext2:	
  2059 ;; *************** function _smt_init *****************
  2060 ;; Defined at:
  2061 ;;		line 71 in file "newmain.c"
  2062 ;; Parameters:    Size  Location     Type
  2063 ;;		None
  2064 ;; Auto vars:     Size  Location     Type
  2065 ;;		None
  2066 ;; Return value:  Size  Location     Type
  2067 ;;                  1    wreg      void 
  2068 ;; Registers used:
  2069 ;;		wreg, status,2, status,0
  2070 ;; Tracked objects:
  2071 ;;		On entry : 0/0
  2072 ;;		On exit  : 0/0
  2073 ;;		Unchanged: 0/0
  2074 ;; Data sizes:     COMMON   BANK0   BANK1   BANK2   BANK3   BANK4   BANK5   BANK6   BANK7   BANK8   BANK9  BANK10  BANK1
      +1  BANK12  BANK13  BANK14  BANK15  BANK16  BANK17  BANK18  BANK19  BANK20  BANK21  BANK22  BANK23  BANK24  BANK25
  2075 ;;      Params:         0       0       0       0       0       0       0       0       0       0       0       0       
      +0       0       0       0       0       0       0       0       0       0       0       0       0       0       0
  2076 ;;      Locals:         0       0       0       0       0       0       0       0       0       0       0       0       
      +0       0       0       0       0       0       0       0       0       0       0       0       0       0       0
  2077 ;;      Temps:          0       0       0       0       0       0       0       0       0       0       0       0       
      +0       0       0       0       0       0       0       0       0       0       0       0       0       0       0
  2078 ;;      Totals:         0       0       0       0       0       0       0       0       0       0       0       0       
      +0       0       0       0       0       0       0       0       0       0       0       0       0       0       0
  2079 ;;Total ram usage:        0 bytes
  2080 ;; Hardware stack levels used: 1
  2081 ;; Hardware stack levels required when called: 1
  2082 ;; This function calls:
  2083 ;;		Nothing
  2084 ;; This function is called by:
  2085 ;;		_main
  2086 ;; This function uses a non-reentrant model
  2087 ;;
  2088                           
  2089                           
  2090                           ;psect for function _smt_init
  2091  158F                     _smt_init:
  2092  158F                     l2620:	
  2093                           ;incstack = 0
  2094                           ; Regs used in _smt_init: [wreg+status,2+status,0]
  2095                           
  2096                           
  2097                           ;newmain.c: 72:     SMT1CLKbits.CSEL = 0b001;
  2098  158F  0149               	movlb	9	; select bank9
  2099  1590  081B               	movf	27,w	;volatile
  2100  1591  39F8               	andlw	-8
  2101  1592  3801               	iorlw	1
  2102  1593  009B               	movwf	27	;volatile
  2103  1594                     l2622:
  2104                           
  2105                           ;newmain.c: 73:     SMT1CON0bits.EN = 1;
  2106  1594  1798               	bsf	24,7	;volatile
  2107                           
  2108                           ;newmain.c: 74:     SMT1CON1bits.MODE = 0b0010;
  2109  1595  0819               	movf	25,w	;volatile
  2110  1596  39F0               	andlw	-16
  2111  1597  3802               	iorlw	2
  2112  1598  0099               	movwf	25	;volatile
  2113  1599                     l2624:
  2114                           
  2115                           ;newmain.c: 75:     SMT1CON1bits.REPEAT = 1;
  2116  1599  1719               	bsf	25,6	;volatile
  2117                           
  2118                           ;newmain.c: 76:     SMT1CON0bits.SMT1PS = 0;
  2119  159A  30FC               	movlw	-4
  2120  159B  0598               	andwf	24,f	;volatile
  2121  159C                     l2626:
  2122                           
  2123                           ;newmain.c: 77:     SMT1PR = 0xffffff;
  2124  159C  30FF               	movlw	255
  2125  159D  0095               	movwf	21	;volatile
  2126  159E  30FF               	movlw	255
  2127  159F  0096               	movwf	22	;volatile
  2128  15A0  30FF               	movlw	255
  2129  15A1  0097               	movwf	23	;volatile
  2130  15A2                     l2628:
  2131                           
  2132                           ;newmain.c: 78:     SMT1CON1bits.SMT1GO = 1;
  2133  15A2  1799               	bsf	25,7	;volatile
  2134  15A3                     l2630:
  2135                           
  2136                           ;newmain.c: 79:     SMT1SIGPPS = 0b00010110;
  2137  15A3  3016               	movlw	22
  2138  15A4  017D               	movlb	61	; select bank61
  2139  15A5  00AA               	movwf	42	;volatile
  2140  15A6                     l68:
  2141  15A6  0008               	return
  2142  15A7                     __end_of_smt_init:
  2143                           
  2144                           	psect	text3
  2145  0968                     __ptext3:	
  2146 ;; *************** function _setNcoFreq *****************
  2147 ;; Defined at:
  2148 ;;		line 57 in file "newmain.c"
  2149 ;; Parameters:    Size  Location     Type
  2150 ;;  freq            4   16[BANK0 ] unsigned long 
  2151 ;; Auto vars:     Size  Location     Type
  2152 ;;  temp            4   40[BANK0 ] unsigned long 
  2153 ;;  c               4   36[BANK0 ] unsigned long 
  2154 ;;  b               4   32[BANK0 ] unsigned long 
  2155 ;;  a               4   28[BANK0 ] unsigned long 
  2156 ;; Return value:  Size  Location     Type
  2157 ;;                  1    wreg      void 
  2158 ;; Registers used:
  2159 ;;		wreg, fsr1l, fsr1h, status,2, status,0, pclath, cstack
  2160 ;; Tracked objects:
  2161 ;;		On entry : 0/0
  2162 ;;		On exit  : 0/0
  2163 ;;		Unchanged: 0/0
  2164 ;; Data sizes:     COMMON   BANK0   BANK1   BANK2   BANK3   BANK4   BANK5   BANK6   BANK7   BANK8   BANK9  BANK10  BANK1
      +1  BANK12  BANK13  BANK14  BANK15  BANK16  BANK17  BANK18  BANK19  BANK20  BANK21  BANK22  BANK23  BANK24  BANK25
  2165 ;;      Params:         0       4       0       0       0       0       0       0       0       0       0       0       
      +0       0       0       0       0       0       0       0       0       0       0       0       0       0       0
  2166 ;;      Locals:         0      16       0       0       0       0       0       0       0       0       0       0       
      +0       0       0       0       0       0       0       0       0       0       0       0       0       0       0
  2167 ;;      Temps:          0       8       0       0       0       0       0       0       0       0       0       0       
      +0       0       0       0       0       0       0       0       0       0       0       0       0       0       0
  2168 ;;      Totals:         0      28       0       0       0       0       0       0       0       0       0       0       
      +0       0       0       0       0       0       0       0       0       0       0       0       0       0       0
  2169 ;;Total ram usage:       28 bytes
  2170 ;; Hardware stack levels used: 1
  2171 ;; Hardware stack levels required when called: 2
  2172 ;; This function calls:
  2173 ;;		___aodiv
  2174 ;; This function is called by:
  2175 ;;		_main
  2176 ;; This function uses a non-reentrant model
  2177 ;;
  2178                           
  2179                           
  2180                           ;psect for function _setNcoFreq
  2181  0968                     _setNcoFreq:
  2182  0968                     l2604:	
  2183                           ;incstack = 0
  2184                           ; Regs used in _setNcoFreq: [wreg+fsr1l+fsr1h+status,2+status,0+pclath+cstack]
  2185                           
  2186                           
  2187                           ;newmain.c: 60:     b = 0;
  2188  0968  3000               	movlw	0
  2189  0969  0140               	movlb	0	; select bank0
  2190  096A  00C3               	movwf	setNcoFreq@b+3
  2191  096B  3000               	movlw	0
  2192  096C  00C2               	movwf	setNcoFreq@b+2
  2193  096D  3000               	movlw	0
  2194  096E  00C1               	movwf	setNcoFreq@b+1
  2195  096F  3000               	movlw	0
  2196  0970  00C0               	movwf	setNcoFreq@b
  2197                           
  2198                           ;newmain.c: 61:     c = 0;
  2199  0971  3000               	movlw	0
  2200  0972  00C7               	movwf	setNcoFreq@c+3
  2201  0973  3000               	movlw	0
  2202  0974  00C6               	movwf	setNcoFreq@c+2
  2203  0975  3000               	movlw	0
  2204  0976  00C5               	movwf	setNcoFreq@c+1
  2205  0977  3000               	movlw	0
  2206  0978  00C4               	movwf	setNcoFreq@c
  2207  0979                     l2606:
  2208                           
  2209                           ;newmain.c: 62:     uint32_t temp = ( ( ( ( freq * 2LL ) *1048576LL ) ) / 125000000LL );
  2210  0979  3000               	movlw	0
  2211  097A  00A7               	movwf	___aodiv@divisor+7
  2212  097B  3000               	movlw	0
  2213  097C  00A6               	movwf	___aodiv@divisor+6
  2214  097D  3000               	movlw	0
  2215  097E  00A5               	movwf	___aodiv@divisor+5
  2216  097F  3000               	movlw	0
  2217  0980  00A4               	movwf	___aodiv@divisor+4
  2218  0981  3007               	movlw	7
  2219  0982  00A3               	movwf	___aodiv@divisor+3
  2220  0983  3073               	movlw	115
  2221  0984  00A2               	movwf	___aodiv@divisor+2
  2222  0985  3059               	movlw	89
  2223  0986  00A1               	movwf	___aodiv@divisor+1
  2224  0987  3040               	movlw	64
  2225  0988  00A0               	movwf	___aodiv@divisor
  2226  0989  0830               	movf	setNcoFreq@freq,w
  2227  098A  00B4               	movwf	??_setNcoFreq
  2228  098B  0831               	movf	setNcoFreq@freq+1,w
  2229  098C  00B5               	movwf	??_setNcoFreq+1
  2230  098D  0832               	movf	setNcoFreq@freq+2,w
  2231  098E  00B6               	movwf	??_setNcoFreq+2
  2232  098F  0833               	movf	setNcoFreq@freq+3,w
  2233  0990  00B7               	movwf	??_setNcoFreq+3
  2234  0991  01B8               	clrf	??_setNcoFreq+4
  2235  0992  01B9               	clrf	??_setNcoFreq+5
  2236  0993  01BA               	clrf	??_setNcoFreq+6
  2237  0994  01BB               	clrf	??_setNcoFreq+7
  2238  0995  35B4               	lslf	??_setNcoFreq,f
  2239  0996  0DB5               	rlf	??_setNcoFreq+1,f
  2240  0997  0DB6               	rlf	??_setNcoFreq+2,f
  2241  0998  0DB7               	rlf	??_setNcoFreq+3,f
  2242  0999  0DB8               	rlf	??_setNcoFreq+4,f
  2243  099A  0DB9               	rlf	??_setNcoFreq+5,f
  2244  099B  0DBA               	rlf	??_setNcoFreq+6,f
  2245  099C  0DBB               	rlf	??_setNcoFreq+7,f
  2246  099D  3014               	movlw	20
  2247  099E                     u3715:
  2248  099E  0140               	movlb	0	; select bank0
  2249  099F  35B4               	lslf	??_setNcoFreq,f
  2250  09A0  0DB5               	rlf	??_setNcoFreq+1,f
  2251  09A1  0DB6               	rlf	??_setNcoFreq+2,f
  2252  09A2  0DB7               	rlf	??_setNcoFreq+3,f
  2253  09A3  0DB8               	rlf	??_setNcoFreq+4,f
  2254  09A4  0DB9               	rlf	??_setNcoFreq+5,f
  2255  09A5  0DBA               	rlf	??_setNcoFreq+6,f
  2256  09A6  0DBB               	rlf	??_setNcoFreq+7,f
  2257  09A7                     u3710:
  2258  09A7  0B89               	decfsz	9,f
  2259  09A8  299E               	goto	u3715
  2260  09A9  0140               	movlb	0	; select bank0
  2261  09AA  083B               	movf	??_setNcoFreq+7,w
  2262  09AB  00AF               	movwf	___aodiv@dividend+7
  2263  09AC  083A               	movf	??_setNcoFreq+6,w
  2264  09AD  00AE               	movwf	___aodiv@dividend+6
  2265  09AE  0839               	movf	??_setNcoFreq+5,w
  2266  09AF  00AD               	movwf	___aodiv@dividend+5
  2267  09B0  0838               	movf	??_setNcoFreq+4,w
  2268  09B1  00AC               	movwf	___aodiv@dividend+4
  2269  09B2  0837               	movf	??_setNcoFreq+3,w
  2270  09B3  00AB               	movwf	___aodiv@dividend+3
  2271  09B4  0836               	movf	??_setNcoFreq+2,w
  2272  09B5  00AA               	movwf	___aodiv@dividend+2
  2273  09B6  0835               	movf	??_setNcoFreq+1,w
  2274  09B7  00A9               	movwf	___aodiv@dividend+1
  2275  09B8  0834               	movf	??_setNcoFreq,w
  2276  09B9  00A8               	movwf	___aodiv@dividend
  2277  09BA  318B  23E1  3189   	fcall	___aodiv
  2278  09BD  0140               	movlb	0	; select bank0
  2279  09BE  0823               	movf	?___aodiv+3,w
  2280  09BF  00CB               	movwf	setNcoFreq@temp+3
  2281  09C0  0822               	movf	?___aodiv+2,w
  2282  09C1  00CA               	movwf	setNcoFreq@temp+2
  2283  09C2  0821               	movf	?___aodiv+1,w
  2284  09C3  00C9               	movwf	setNcoFreq@temp+1
  2285  09C4  0820               	movf	?___aodiv,w
  2286  09C5  00C8               	movwf	setNcoFreq@temp
  2287  09C6                     l2608:
  2288                           
  2289                           ;newmain.c: 63:     a = (temp & 0xff) + 1;
  2290  09C6  30FF               	movlw	255
  2291  09C7  0548               	andwf	setNcoFreq@temp,w
  2292  09C8  00B4               	movwf	??_setNcoFreq
  2293  09C9  3000               	movlw	0
  2294  09CA  0549               	andwf	setNcoFreq@temp+1,w
  2295  09CB  00B5               	movwf	??_setNcoFreq+1
  2296  09CC  3000               	movlw	0
  2297  09CD  054A               	andwf	setNcoFreq@temp+2,w
  2298  09CE  00B6               	movwf	??_setNcoFreq+2
  2299  09CF  3000               	movlw	0
  2300  09D0  054B               	andwf	setNcoFreq@temp+3,w
  2301  09D1  00B7               	movwf	??_setNcoFreq+3
  2302  09D2  3001               	movlw	1
  2303  09D3  0734               	addwf	??_setNcoFreq,w
  2304  09D4  00BC               	movwf	setNcoFreq@a
  2305  09D5  3000               	movlw	0
  2306  09D6  3D35               	addwfc	??_setNcoFreq+1,w
  2307  09D7  00BD               	movwf	setNcoFreq@a+1
  2308  09D8  3000               	movlw	0
  2309  09D9  3D36               	addwfc	??_setNcoFreq+2,w
  2310  09DA  00BE               	movwf	setNcoFreq@a+2
  2311  09DB  3000               	movlw	0
  2312  09DC  3D37               	addwfc	??_setNcoFreq+3,w
  2313  09DD  00BF               	movwf	setNcoFreq@a+3
  2314  09DE                     l2610:
  2315                           
  2316                           ;newmain.c: 64:     b = ((temp >> 8)&0xff);
  2317  09DE  0848               	movf	setNcoFreq@temp,w
  2318  09DF  00B4               	movwf	??_setNcoFreq
  2319  09E0  0849               	movf	setNcoFreq@temp+1,w
  2320  09E1  00B5               	movwf	??_setNcoFreq+1
  2321  09E2  084A               	movf	setNcoFreq@temp+2,w
  2322  09E3  00B6               	movwf	??_setNcoFreq+2
  2323  09E4  084B               	movf	setNcoFreq@temp+3,w
  2324  09E5  00B7               	movwf	??_setNcoFreq+3
  2325  09E6  3008               	movlw	8
  2326  09E7                     u3725:
  2327  09E7  36B7               	lsrf	??_setNcoFreq+3,f
  2328  09E8  0CB6               	rrf	??_setNcoFreq+2,f
  2329  09E9  0CB5               	rrf	??_setNcoFreq+1,f
  2330  09EA  0CB4               	rrf	??_setNcoFreq,f
  2331  09EB                     u3720:
  2332  09EB  0B89               	decfsz	9,f
  2333  09EC  29E7               	goto	u3725
  2334  09ED  30FF               	movlw	255
  2335  09EE  0534               	andwf	??_setNcoFreq,w
  2336  09EF  00C0               	movwf	setNcoFreq@b
  2337  09F0  3000               	movlw	0
  2338  09F1  0535               	andwf	??_setNcoFreq+1,w
  2339  09F2  00C1               	movwf	setNcoFreq@b+1
  2340  09F3  3000               	movlw	0
  2341  09F4  0536               	andwf	??_setNcoFreq+2,w
  2342  09F5  00C2               	movwf	setNcoFreq@b+2
  2343  09F6  3000               	movlw	0
  2344  09F7  0537               	andwf	??_setNcoFreq+3,w
  2345  09F8  00C3               	movwf	setNcoFreq@b+3
  2346  09F9                     l2612:
  2347                           
  2348                           ;newmain.c: 65:     c = ((temp >> 16)&0xff);
  2349  09F9  0848               	movf	setNcoFreq@temp,w
  2350  09FA  00B4               	movwf	??_setNcoFreq
  2351  09FB  0849               	movf	setNcoFreq@temp+1,w
  2352  09FC  00B5               	movwf	??_setNcoFreq+1
  2353  09FD  084A               	movf	setNcoFreq@temp+2,w
  2354  09FE  00B6               	movwf	??_setNcoFreq+2
  2355  09FF  084B               	movf	setNcoFreq@temp+3,w
  2356  0A00  00B7               	movwf	??_setNcoFreq+3
  2357  0A01  3010               	movlw	16
  2358  0A02                     u3735:
  2359  0A02  36B7               	lsrf	??_setNcoFreq+3,f
  2360  0A03  0CB6               	rrf	??_setNcoFreq+2,f
  2361  0A04  0CB5               	rrf	??_setNcoFreq+1,f
  2362  0A05  0CB4               	rrf	??_setNcoFreq,f
  2363  0A06                     u3730:
  2364  0A06  0B89               	decfsz	9,f
  2365  0A07  2A02               	goto	u3735
  2366  0A08  30FF               	movlw	255
  2367  0A09  0534               	andwf	??_setNcoFreq,w
  2368  0A0A  00C4               	movwf	setNcoFreq@c
  2369  0A0B  3000               	movlw	0
  2370  0A0C  0535               	andwf	??_setNcoFreq+1,w
  2371  0A0D  00C5               	movwf	setNcoFreq@c+1
  2372  0A0E  3000               	movlw	0
  2373  0A0F  0536               	andwf	??_setNcoFreq+2,w
  2374  0A10  00C6               	movwf	setNcoFreq@c+2
  2375  0A11  3000               	movlw	0
  2376  0A12  0537               	andwf	??_setNcoFreq+3,w
  2377  0A13  00C7               	movwf	setNcoFreq@c+3
  2378  0A14                     l2614:
  2379                           
  2380                           ;newmain.c: 66:     NCO1INCL = a;
  2381  0A14  083C               	movf	setNcoFreq@a,w
  2382  0A15  014B               	movlb	11	; select bank11
  2383  0A16  008F               	movwf	15	;volatile
  2384  0A17                     l2616:
  2385                           
  2386                           ;newmain.c: 67:     NCO1INCH = b;
  2387  0A17  0140               	movlb	0	; select bank0
  2388  0A18  0840               	movf	setNcoFreq@b,w
  2389  0A19  014B               	movlb	11	; select bank11
  2390  0A1A  0090               	movwf	16	;volatile
  2391  0A1B                     l2618:
  2392                           
  2393                           ;newmain.c: 68:     NCO1INCU = c;
  2394  0A1B  0140               	movlb	0	; select bank0
  2395  0A1C  0844               	movf	setNcoFreq@c,w
  2396  0A1D  014B               	movlb	11	; select bank11
  2397  0A1E  0091               	movwf	17	;volatile
  2398  0A1F                     l65:
  2399  0A1F  0008               	return
  2400  0A20                     __end_of_setNcoFreq:
  2401                           
  2402                           	psect	text4
  2403  157D                     __ptext4:	
  2404 ;; *************** function _printf *****************
  2405 ;; Defined at:
  2406 ;;		line 5 in file "C:\Program Files\Microchip\xc8\v2.32\pic\sources\c99\common\printf.c"
  2407 ;; Parameters:    Size  Location     Type
  2408 ;;  fmt             2   70[BANK0 ] PTR const unsigned char 
  2409 ;;		 -> STR_1(5), 
  2410 ;; Auto vars:     Size  Location     Type
  2411 ;;  ret             2    0        int 
  2412 ;;  ap              1   76[BANK0 ] PTR void [1]
  2413 ;;		 -> ?_printf(2), 
  2414 ;; Return value:  Size  Location     Type
  2415 ;;                  2   70[BANK0 ] int 
  2416 ;; Registers used:
  2417 ;;		wreg, fsr0l, fsr0h, fsr1l, fsr1h, status,2, status,0, pclath, cstack
  2418 ;; Tracked objects:
  2419 ;;		On entry : 0/0
  2420 ;;		On exit  : 0/0
  2421 ;;		Unchanged: 0/0
  2422 ;; Data sizes:     COMMON   BANK0   BANK1   BANK2   BANK3   BANK4   BANK5   BANK6   BANK7   BANK8   BANK9  BANK10  BANK1
      +1  BANK12  BANK13  BANK14  BANK15  BANK16  BANK17  BANK18  BANK19  BANK20  BANK21  BANK22  BANK23  BANK24  BANK25
  2423 ;;      Params:         0       6       0       0       0       0       0       0       0       0       0       0       
      +0       0       0       0       0       0       0       0       0       0       0       0       0       0       0
  2424 ;;      Locals:         0       1       0       0       0       0       0       0       0       0       0       0       
      +0       0       0       0       0       0       0       0       0       0       0       0       0       0       0
  2425 ;;      Temps:          1       0       0       0       0       0       0       0       0       0       0       0       
      +0       0       0       0       0       0       0       0       0       0       0       0       0       0       0
  2426 ;;      Totals:         1       7       0       0       0       0       0       0       0       0       0       0       
      +0       0       0       0       0       0       0       0       0       0       0       0       0       0       0
  2427 ;;Total ram usage:        8 bytes
  2428 ;; Hardware stack levels used: 1
  2429 ;; Hardware stack levels required when called: 8
  2430 ;; This function calls:
  2431 ;;		_vfprintf
  2432 ;; This function is called by:
  2433 ;;		_main
  2434 ;; This function uses a non-reentrant model
  2435 ;;
  2436                           
  2437                           
  2438                           ;psect for function _printf
  2439  157D                     _printf:
  2440  157D                     l2644:	
  2441                           ;incstack = 0
  2442                           ; Regs used in _printf: [wreg-fsr1h+status,2+status,0+pclath+cstack]
  2443                           
  2444  157D  3068               	movlw	(low ((?_printf| 0+2)))& (0+255)
  2445  157E  00FC               	movwf	??_printf
  2446  157F  087C               	movf	??_printf,w
  2447  1580  0140               	movlb	0	; select bank0
  2448  1581  00EC               	movwf	printf@ap
  2449  1582                     l2646:
  2450  1582  0867               	movf	printf@fmt+1,w
  2451  1583  00DF               	movwf	vfprintf@fmt+1
  2452  1584  0866               	movf	printf@fmt,w
  2453  1585  00DE               	movwf	vfprintf@fmt
  2454  1586  306C               	movlw	(low (printf@ap| 0))& (0+255)
  2455  1587  00FC               	movwf	??_printf
  2456  1588  087C               	movf	??_printf,w
  2457  1589  00E0               	movwf	vfprintf@ap
  2458  158A  3000               	movlw	0
  2459  158B  3188  2000  3195   	fcall	_vfprintf
  2460  158E                     l716:
  2461  158E  0008               	return
  2462  158F                     __end_of_printf:
  2463                           
  2464                           	psect	text5
  2465  0800                     __ptext5:	
  2466 ;; *************** function _vfprintf *****************
  2467 ;; Defined at:
  2468 ;;		line 1390 in file "C:\Program Files\Microchip\xc8\v2.32\pic\sources\c99\common\doprnt.c"
  2469 ;; Parameters:    Size  Location     Type
  2470 ;;  fp              1    wreg     PTR struct _IO_FILE
  2471 ;;		 -> NULL(0), 
  2472 ;;  fmt             2   62[BANK0 ] PTR const unsigned char 
  2473 ;;		 -> STR_1(5), 
  2474 ;;  ap              1   64[BANK0 ] PTR PTR void 
  2475 ;;		 -> printf@ap(1), 
  2476 ;; Auto vars:     Size  Location     Type
  2477 ;;  fp              1   67[BANK0 ] PTR struct _IO_FILE
  2478 ;;		 -> NULL(0), 
  2479 ;;  cfmt            2   68[BANK0 ] PTR unsigned char 
  2480 ;;		 -> STR_1(5), 
  2481 ;; Return value:  Size  Location     Type
  2482 ;;                  2   62[BANK0 ] int 
  2483 ;; Registers used:
  2484 ;;		wreg, fsr0l, fsr0h, fsr1l, fsr1h, status,2, status,0, pclath, cstack
  2485 ;; Tracked objects:
  2486 ;;		On entry : 0/0
  2487 ;;		On exit  : 0/0
  2488 ;;		Unchanged: 0/0
  2489 ;; Data sizes:     COMMON   BANK0   BANK1   BANK2   BANK3   BANK4   BANK5   BANK6   BANK7   BANK8   BANK9  BANK10  BANK1
      +1  BANK12  BANK13  BANK14  BANK15  BANK16  BANK17  BANK18  BANK19  BANK20  BANK21  BANK22  BANK23  BANK24  BANK25
  2490 ;;      Params:         0       3       0       0       0       0       0       0       0       0       0       0       
      +0       0       0       0       0       0       0       0       0       0       0       0       0       0       0
  2491 ;;      Locals:         0       3       0       0       0       0       0       0       0       0       0       0       
      +0       0       0       0       0       0       0       0       0       0       0       0       0       0       0
  2492 ;;      Temps:          0       2       0       0       0       0       0       0       0       0       0       0       
      +0       0       0       0       0       0       0       0       0       0       0       0       0       0       0
  2493 ;;      Totals:         0       8       0       0       0       0       0       0       0       0       0       0       
      +0       0       0       0       0       0       0       0       0       0       0       0       0       0       0
  2494 ;;Total ram usage:        8 bytes
  2495 ;; Hardware stack levels used: 1
  2496 ;; Hardware stack levels required when called: 7
  2497 ;; This function calls:
  2498 ;;		_vfpfcnvrt
  2499 ;; This function is called by:
  2500 ;;		_printf
  2501 ;; This function uses a non-reentrant model
  2502 ;;
  2503                           
  2504                           
  2505                           ;psect for function _vfprintf
  2506  0800                     _vfprintf:
  2507                           
  2508                           ;incstack = 0
  2509                           ; Regs used in _vfprintf: [wreg-fsr1h+status,2+status,0+pclath+cstack]
  2510                           ;vfprintf@fp stored from wreg
  2511  0800  0140               	movlb	0	; select bank0
  2512  0801  00E3               	movwf	vfprintf@fp
  2513  0802                     l2592:
  2514                           
  2515                           ;C:\Program Files\Microchip\xc8\v2.32\pic\sources\c99\common\doprnt.c: 1390: int vfprint
      +                          f(FILE *fp, const char *fmt, va_list ap);C:\Program Files\Microchip\xc8\v2.32\pic\source
      +                          s\c99\common\doprnt.c: 1391: {;C:\Program Files\Microchip\xc8\v2.32\pic\sources\c99\comm
      +                          on\doprnt.c: 1393:     char *cfmt;;C:\Program Files\Microchip\xc8\v2.32\pic\sources\c99\
      +                          common\doprnt.c: 1395:     cfmt = (char *)fmt;
  2516  0802  085F               	movf	vfprintf@fmt+1,w
  2517  0803  00E5               	movwf	vfprintf@cfmt+1
  2518  0804  085E               	movf	vfprintf@fmt,w
  2519  0805  00E4               	movwf	vfprintf@cfmt
  2520  0806                     l2594:
  2521                           
  2522                           ;C:\Program Files\Microchip\xc8\v2.32\pic\sources\c99\common\doprnt.c: 1396:     nout = 
      +                          0;
  2523  0806  0141               	movlb	1	; select bank1
  2524  0807  01A8               	clrf	_nout^(0+128)
  2525  0808  01A9               	clrf	(_nout+1)^(0+128)
  2526                           
  2527                           ;C:\Program Files\Microchip\xc8\v2.32\pic\sources\c99\common\doprnt.c: 1397:     while (
      +                          *cfmt) {
  2528  0809  281E               	goto	l2598
  2529  080A                     l2596:
  2530                           
  2531                           ;C:\Program Files\Microchip\xc8\v2.32\pic\sources\c99\common\doprnt.c: 1398:         nou
      +                          t += vfpfcnvrt(fp, &cfmt, ap);
  2532  080A  3064               	movlw	(low (vfprintf@cfmt| 0))& (0+255)
  2533  080B  00E1               	movwf	??_vfprintf
  2534  080C  0861               	movf	??_vfprintf,w
  2535  080D  00CE               	movwf	vfpfcnvrt@fmt
  2536  080E  0860               	movf	vfprintf@ap,w
  2537  080F  00E2               	movwf	??_vfprintf+1
  2538  0810  0862               	movf	??_vfprintf+1,w
  2539  0811  00CF               	movwf	vfpfcnvrt@ap
  2540  0812  0863               	movf	vfprintf@fp,w
  2541  0813  3186  26A2  3188   	fcall	_vfpfcnvrt
  2542  0816  0140               	movlb	0	; select bank0
  2543  0817  084E               	movf	?_vfpfcnvrt,w
  2544  0818  0141               	movlb	1	; select bank1
  2545  0819  07A8               	addwf	_nout^(0+128),f
  2546  081A  0140               	movlb	0	; select bank0
  2547  081B  084F               	movf	?_vfpfcnvrt+1,w
  2548  081C  0141               	movlb	1	; select bank1
  2549  081D  3DA9               	addwfc	(_nout+1)^(0+128),f
  2550  081E                     l2598:
  2551                           
  2552                           ;C:\Program Files\Microchip\xc8\v2.32\pic\sources\c99\common\doprnt.c: 1397:     while (
      +                          *cfmt) {
  2553  081E  0140               	movlb	0	; select bank0
  2554  081F  0864               	movf	vfprintf@cfmt,w
  2555  0820  0084               	movwf	4
  2556  0821  0865               	movf	vfprintf@cfmt+1,w
  2557  0822  0085               	movwf	5
  2558  0823  0012               	moviw fsr0++
  2559  0824  1D03               	btfss	3,2
  2560  0825  2827               	goto	u3701
  2561  0826  2828               	goto	u3700
  2562  0827                     u3701:
  2563  0827  280A               	goto	l2596
  2564  0828                     u3700:
  2565  0828                     l2600:
  2566                           
  2567                           ;C:\Program Files\Microchip\xc8\v2.32\pic\sources\c99\common\doprnt.c: 1400:     return 
      +                          nout;
  2568  0828  0141               	movlb	1	; select bank1
  2569  0829  0829               	movf	(_nout+1)^(0+128),w
  2570  082A  0140               	movlb	0	; select bank0
  2571  082B  00DF               	movwf	?_vfprintf+1
  2572  082C  0141               	movlb	1	; select bank1
  2573  082D  0828               	movf	_nout^(0+128),w
  2574  082E  0140               	movlb	0	; select bank0
  2575  082F  00DE               	movwf	?_vfprintf
  2576  0830                     l793:
  2577  0830  0008               	return
  2578  0831                     __end_of_vfprintf:
  2579                           
  2580                           	psect	text6
  2581  06A2                     __ptext6:	
  2582 ;; *************** function _vfpfcnvrt *****************
  2583 ;; Defined at:
  2584 ;;		line 692 in file "C:\Program Files\Microchip\xc8\v2.32\pic\sources\c99\common\doprnt.c"
  2585 ;; Parameters:    Size  Location     Type
  2586 ;;  fp              1    wreg     PTR struct _IO_FILE
  2587 ;;		 -> NULL(0), 
  2588 ;;  fmt             1   46[BANK0 ] PTR PTR unsigned char 
  2589 ;;		 -> vfprintf@cfmt(2), 
  2590 ;;  ap              1   47[BANK0 ] PTR PTR void 
  2591 ;;		 -> printf@ap(1), 
  2592 ;; Auto vars:     Size  Location     Type
  2593 ;;  fp              1   61[BANK0 ] PTR struct _IO_FILE
  2594 ;;		 -> NULL(0), 
  2595 ;;  ll              8   53[BANK0 ] long long 
  2596 ;;  llu             8    0        unsigned long long 
  2597 ;;  f               4    0        unsigned long long 
  2598 ;;  ct              3    0        unsigned char [3]
  2599 ;;  vp              2    0        PTR void 
  2600 ;;  i               2    0        int 
  2601 ;;  done            2    0        int 
  2602 ;;  cp              2    0        PTR unsigned char 
  2603 ;;  c               1    0        unsigned char 
  2604 ;; Return value:  Size  Location     Type
  2605 ;;                  2   46[BANK0 ] int 
  2606 ;; Registers used:
  2607 ;;		wreg, fsr0l, fsr0h, fsr1l, fsr1h, status,2, status,0, pclath, cstack
  2608 ;; Tracked objects:
  2609 ;;		On entry : 0/0
  2610 ;;		On exit  : 0/0
  2611 ;;		Unchanged: 0/0
  2612 ;; Data sizes:     COMMON   BANK0   BANK1   BANK2   BANK3   BANK4   BANK5   BANK6   BANK7   BANK8   BANK9  BANK10  BANK1
      +1  BANK12  BANK13  BANK14  BANK15  BANK16  BANK17  BANK18  BANK19  BANK20  BANK21  BANK22  BANK23  BANK24  BANK25
  2613 ;;      Params:         0       2       0       0       0       0       0       0       0       0       0       0       
      +0       0       0       0       0       0       0       0       0       0       0       0       0       0       0
  2614 ;;      Locals:         0       9       0       0       0       0       0       0       0       0       0       0       
      +0       0       0       0       0       0       0       0       0       0       0       0       0       0       0
  2615 ;;      Temps:          0       5       0       0       0       0       0       0       0       0       0       0       
      +0       0       0       0       0       0       0       0       0       0       0       0       0       0       0
  2616 ;;      Totals:         0      16       0       0       0       0       0       0       0       0       0       0       
      +0       0       0       0       0       0       0       0       0       0       0       0       0       0       0
  2617 ;;Total ram usage:       16 bytes
  2618 ;; Hardware stack levels used: 1
  2619 ;; Hardware stack levels required when called: 6
  2620 ;; This function calls:
  2621 ;;		_dtoa
  2622 ;;		_fputc
  2623 ;;		_strncmp
  2624 ;; This function is called by:
  2625 ;;		_vfprintf
  2626 ;; This function uses a non-reentrant model
  2627 ;;
  2628                           
  2629                           
  2630                           ;psect for function _vfpfcnvrt
  2631  06A2                     _vfpfcnvrt:
  2632                           
  2633                           ;incstack = 0
  2634                           ; Regs used in _vfpfcnvrt: [wreg-fsr1h+status,2+status,0+pclath+cstack]
  2635                           ;vfpfcnvrt@fp stored from wreg
  2636  06A2  0140               	movlb	0	; select bank0
  2637  06A3  00DD               	movwf	vfpfcnvrt@fp
  2638  06A4                     l2464:
  2639                           
  2640                           ;C:\Program Files\Microchip\xc8\v2.32\pic\sources\c99\common\doprnt.c: 692: static int v
      +                          fpfcnvrt(FILE *fp, char *fmt[], va_list ap);C:\Program Files\Microchip\xc8\v2.32\pic\sou
      +                          rces\c99\common\doprnt.c: 693: {;C:\Program Files\Microchip\xc8\v2.32\pic\sources\c99\co
      +                          mmon\doprnt.c: 694:     char c, *cp, ct[3];;C:\Program Files\Microchip\xc8\v2.32\pic\sou
      +                          rces\c99\common\doprnt.c: 695:     int done, i;;C:\Program Files\Microchip\xc8\v2.32\pic
      +                          \sources\c99\common\doprnt.c: 696:     long long ll;;C:\Program Files\Microchip\xc8\v2.3
      +                          2\pic\sources\c99\common\doprnt.c: 697:     unsigned long long llu;
  2641  06A4  084E               	movf	vfpfcnvrt@fmt,w
  2642  06A5  0086               	movwf	6
  2643  06A6  0187               	clrf	7
  2644  06A7  3F40               	moviw [0]fsr1
  2645  06A8  00D0               	movwf	??_vfpfcnvrt
  2646  06A9  3F41               	moviw [1]fsr1
  2647  06AA  00D1               	movwf	??_vfpfcnvrt+1
  2648  06AB  0850               	movf	??_vfpfcnvrt,w
  2649  06AC  0084               	movwf	4
  2650  06AD  0851               	movf	??_vfpfcnvrt+1,w
  2651  06AE  0085               	movwf	5
  2652  06AF  0012               	moviw fsr0++
  2653  06B0  3A25               	xorlw	37
  2654  06B1  1D03               	btfss	3,2
  2655  06B2  2EB4               	goto	u3451
  2656  06B3  2EB5               	goto	u3450
  2657  06B4                     u3451:
  2658  06B4  2FCF               	goto	l2512
  2659  06B5                     u3450:
  2660  06B5                     l2466:
  2661                           
  2662                           ;C:\Program Files\Microchip\xc8\v2.32\pic\sources\c99\common\doprnt.c: 703:         ++*f
      +                          mt;
  2663  06B5  084E               	movf	vfpfcnvrt@fmt,w
  2664  06B6  0086               	movwf	6
  2665  06B7  0187               	clrf	7
  2666  06B8  3001               	movlw	1
  2667  06B9  0781               	addwf	1,f
  2668  06BA  3141               	addfsr 1,1
  2669  06BB  1803               	skipnc
  2670  06BC  0A81               	incf	1,f
  2671  06BD                     l2468:
  2672                           
  2673                           ;C:\Program Files\Microchip\xc8\v2.32\pic\sources\c99\common\doprnt.c: 705:         flag
      +                          s = width = 0;
  2674  06BD  0141               	movlb	1	; select bank1
  2675  06BE  01AA               	clrf	_width^(0+128)
  2676  06BF  01AB               	clrf	(_width+1)^(0+128)
  2677  06C0  0140               	movlb	0	; select bank0
  2678  06C1  01ED               	clrf	_flags
  2679  06C2  01EE               	clrf	_flags+1
  2680  06C3                     l2470:
  2681                           
  2682                           ;C:\Program Files\Microchip\xc8\v2.32\pic\sources\c99\common\doprnt.c: 706:         prec
      +                           = -1;
  2683  06C3  30FF               	movlw	255
  2684  06C4  0141               	movlb	1	; select bank1
  2685  06C5  00AC               	movwf	_prec^(0+128)
  2686  06C6  30FF               	movlw	255
  2687  06C7  00AD               	movwf	(_prec^(0+128)+1)
  2688  06C8                     l2472:
  2689                           
  2690                           ;C:\Program Files\Microchip\xc8\v2.32\pic\sources\c99\common\doprnt.c: 847:         if (
      +                          (*fmt[0] == 'd') || (*fmt[0] == 'i')) {
  2691  06C8  0140               	movlb	0	; select bank0
  2692  06C9  084E               	movf	vfpfcnvrt@fmt,w
  2693  06CA  0086               	movwf	6
  2694  06CB  0187               	clrf	7
  2695  06CC  3F40               	moviw [0]fsr1
  2696  06CD  00D0               	movwf	??_vfpfcnvrt
  2697  06CE  3F41               	moviw [1]fsr1
  2698  06CF  00D1               	movwf	??_vfpfcnvrt+1
  2699  06D0  0850               	movf	??_vfpfcnvrt,w
  2700  06D1  0084               	movwf	4
  2701  06D2  0851               	movf	??_vfpfcnvrt+1,w
  2702  06D3  0085               	movwf	5
  2703  06D4  0012               	moviw fsr0++
  2704  06D5  3A64               	xorlw	100
  2705  06D6  1903               	btfsc	3,2
  2706  06D7  2ED9               	goto	u3461
  2707  06D8  2EDA               	goto	u3460
  2708  06D9                     u3461:
  2709  06D9  2EEB               	goto	l2476
  2710  06DA                     u3460:
  2711  06DA                     l2474:
  2712  06DA  084E               	movf	vfpfcnvrt@fmt,w
  2713  06DB  0086               	movwf	6
  2714  06DC  0187               	clrf	7
  2715  06DD  3F40               	moviw [0]fsr1
  2716  06DE  00D0               	movwf	??_vfpfcnvrt
  2717  06DF  3F41               	moviw [1]fsr1
  2718  06E0  00D1               	movwf	??_vfpfcnvrt+1
  2719  06E1  0850               	movf	??_vfpfcnvrt,w
  2720  06E2  0084               	movwf	4
  2721  06E3  0851               	movf	??_vfpfcnvrt+1,w
  2722  06E4  0085               	movwf	5
  2723  06E5  0012               	moviw fsr0++
  2724  06E6  3A69               	xorlw	105
  2725  06E7  1D03               	btfss	3,2
  2726  06E8  2EEA               	goto	u3471
  2727  06E9  2EEB               	goto	u3470
  2728  06EA                     u3471:
  2729  06EA  2F26               	goto	l2484
  2730  06EB                     u3470:
  2731  06EB                     l2476:
  2732                           
  2733                           ;C:\Program Files\Microchip\xc8\v2.32\pic\sources\c99\common\doprnt.c: 849:             
      +                          ++*fmt;
  2734  06EB  084E               	movf	vfpfcnvrt@fmt,w
  2735  06EC  0086               	movwf	6
  2736  06ED  0187               	clrf	7
  2737  06EE  3001               	movlw	1
  2738  06EF  0781               	addwf	1,f
  2739  06F0  3141               	addfsr 1,1
  2740  06F1  1803               	skipnc
  2741  06F2  0A81               	incf	1,f
  2742  06F3                     l2478:
  2743                           
  2744                           ;C:\Program Files\Microchip\xc8\v2.32\pic\sources\c99\common\doprnt.c: 850:             
      +                          ll = (long long)(*(int *)__va_arg(*(int **)ap, (int)0));
  2745  06F3  084F               	movf	vfpfcnvrt@ap,w
  2746  06F4  0086               	movwf	6
  2747  06F5  0187               	clrf	7
  2748  06F6  0801               	movf	1,w
  2749  06F7  0084               	movwf	4
  2750  06F8  0185               	clrf	5
  2751  06F9  3002               	movlw	2
  2752  06FA  0781               	addwf	1,f
  2753  06FB  3F00               	moviw [0]fsr0
  2754  06FC  00D0               	movwf	??_vfpfcnvrt
  2755  06FD  3F01               	moviw [1]fsr0
  2756  06FE  00D1               	movwf	??_vfpfcnvrt+1
  2757  06FF  0850               	movf	??_vfpfcnvrt,w
  2758  0700  00D5               	movwf	vfpfcnvrt@ll
  2759  0701  0851               	movf	??_vfpfcnvrt+1,w
  2760  0702  00D6               	movwf	vfpfcnvrt@ll+1
  2761  0703  0D89               	rlf	9,f
  2762  0704  3B89               	subwfb	9,f
  2763  0705  0989               	comf	9,f
  2764  0706  00D7               	movwf	vfpfcnvrt@ll+2
  2765  0707  00D8               	movwf	vfpfcnvrt@ll+3
  2766  0708  00D9               	movwf	vfpfcnvrt@ll+4
  2767  0709  00DA               	movwf	vfpfcnvrt@ll+5
  2768  070A  00DB               	movwf	vfpfcnvrt@ll+6
  2769  070B  00DC               	movwf	vfpfcnvrt@ll+7
  2770  070C                     l2480:
  2771                           
  2772                           ;C:\Program Files\Microchip\xc8\v2.32\pic\sources\c99\common\doprnt.c: 852:             
      +                          return dtoa(fp, ll);
  2773  070C  0855               	movf	vfpfcnvrt@ll,w
  2774  070D  00B0               	movwf	dtoa@d
  2775  070E  0856               	movf	vfpfcnvrt@ll+1,w
  2776  070F  00B1               	movwf	dtoa@d+1
  2777  0710  0857               	movf	vfpfcnvrt@ll+2,w
  2778  0711  00B2               	movwf	dtoa@d+2
  2779  0712  0858               	movf	vfpfcnvrt@ll+3,w
  2780  0713  00B3               	movwf	dtoa@d+3
  2781  0714  0859               	movf	vfpfcnvrt@ll+4,w
  2782  0715  00B4               	movwf	dtoa@d+4
  2783  0716  085A               	movf	vfpfcnvrt@ll+5,w
  2784  0717  00B5               	movwf	dtoa@d+5
  2785  0718  085B               	movf	vfpfcnvrt@ll+6,w
  2786  0719  00B6               	movwf	dtoa@d+6
  2787  071A  085C               	movf	vfpfcnvrt@ll+7,w
  2788  071B  00B7               	movwf	dtoa@d+7
  2789  071C  085D               	movf	vfpfcnvrt@fp,w
  2790  071D  318C  24E2  3186   	fcall	_dtoa
  2791  0720  0140               	movlb	0	; select bank0
  2792  0721  0831               	movf	?_dtoa+1,w
  2793  0722  00CF               	movwf	?_vfpfcnvrt+1
  2794  0723  0830               	movf	?_dtoa,w
  2795  0724  00CE               	movwf	?_vfpfcnvrt
  2796  0725  2FF2               	goto	l783
  2797  0726                     l2484:
  2798                           
  2799                           ;C:\Program Files\Microchip\xc8\v2.32\pic\sources\c99\common\doprnt.c: 857:         if (
      +                          !strncmp(*fmt, "ld", ((sizeof("ld")/sizeof("ld"[0]))-1)) || !strncmp(*fmt, "li", ((sizeo
      +                          f("li")/sizeof("li"[0]))-1))) {
  2800  0726  084E               	movf	vfpfcnvrt@fmt,w
  2801  0727  0086               	movwf	6
  2802  0728  0187               	clrf	7
  2803  0729  3F40               	moviw [0]fsr1
  2804  072A  00F1               	movwf	strncmp@_l
  2805  072B  3F41               	moviw [1]fsr1
  2806  072C  00F2               	movwf	strncmp@_l+1
  2807  072D  3009               	movlw	low (STR_2| (0+32768))
  2808  072E  00F3               	movwf	strncmp@_r
  2809  072F  3098               	movlw	high (STR_2| (0+32768))
  2810  0730  00F4               	movwf	strncmp@_r+1
  2811  0731  3002               	movlw	2
  2812  0732  00F5               	movwf	strncmp@n
  2813  0733  3000               	movlw	0
  2814  0734  00F6               	movwf	strncmp@n+1
  2815  0735  3197  272F  3186   	fcall	_strncmp
  2816  0738  0871               	movf	?_strncmp,w
  2817  0739  0472               	iorwf	?_strncmp+1,w
  2818  073A  1903               	btfsc	3,2
  2819  073B  2F3D               	goto	u3481
  2820  073C  2F3E               	goto	u3480
  2821  073D                     u3481:
  2822  073D  2F57               	goto	l2488
  2823  073E                     u3480:
  2824  073E                     l2486:
  2825  073E  0140               	movlb	0	; select bank0
  2826  073F  084E               	movf	vfpfcnvrt@fmt,w
  2827  0740  0086               	movwf	6
  2828  0741  0187               	clrf	7
  2829  0742  3F40               	moviw [0]fsr1
  2830  0743  00F1               	movwf	strncmp@_l
  2831  0744  3F41               	moviw [1]fsr1
  2832  0745  00F2               	movwf	strncmp@_l+1
  2833  0746  300C               	movlw	low (STR_6| (0+32768))
  2834  0747  00F3               	movwf	strncmp@_r
  2835  0748  3098               	movlw	high (STR_6| (0+32768))
  2836  0749  00F4               	movwf	strncmp@_r+1
  2837  074A  3002               	movlw	2
  2838  074B  00F5               	movwf	strncmp@n
  2839  074C  3000               	movlw	0
  2840  074D  00F6               	movwf	strncmp@n+1
  2841  074E  3197  272F  3186   	fcall	_strncmp
  2842  0751  0871               	movf	?_strncmp,w
  2843  0752  0472               	iorwf	?_strncmp+1,w
  2844  0753  1D03               	btfss	3,2
  2845  0754  2F56               	goto	u3491
  2846  0755  2F57               	goto	u3490
  2847  0756                     u3491:
  2848  0756  2F99               	goto	l2496
  2849  0757                     u3490:
  2850  0757                     l2488:
  2851                           
  2852                           ;C:\Program Files\Microchip\xc8\v2.32\pic\sources\c99\common\doprnt.c: 858: ;C:\Program 
      +                          Files\Microchip\xc8\v2.32\pic\sources\c99\common\doprnt.c: 860:             *fmt += ((si
      +                          zeof("ld")/sizeof("ld"[0]))-1);
  2853  0757  0140               	movlb	0	; select bank0
  2854  0758  084E               	movf	vfpfcnvrt@fmt,w
  2855  0759  0086               	movwf	6
  2856  075A  0187               	clrf	7
  2857  075B  3002               	movlw	2
  2858  075C  0781               	addwf	1,f
  2859  075D  3141               	addfsr 1,1
  2860  075E  1803               	skipnc
  2861  075F  0A81               	incf	1,f
  2862  0760                     l2490:
  2863                           
  2864                           ;C:\Program Files\Microchip\xc8\v2.32\pic\sources\c99\common\doprnt.c: 861:             
      +                          ll = (long long)(*(long *)__va_arg(*(long **)ap, (long)0));
  2865  0760  084F               	movf	vfpfcnvrt@ap,w
  2866  0761  0086               	movwf	6
  2867  0762  0187               	clrf	7
  2868  0763  0801               	movf	1,w
  2869  0764  0084               	movwf	4
  2870  0765  0185               	clrf	5
  2871  0766  3004               	movlw	4
  2872  0767  0781               	addwf	1,f
  2873  0768  3F00               	moviw [0]fsr0
  2874  0769  00D0               	movwf	??_vfpfcnvrt
  2875  076A  3F01               	moviw [1]fsr0
  2876  076B  00D1               	movwf	??_vfpfcnvrt+1
  2877  076C  3F02               	moviw [2]fsr0
  2878  076D  00D2               	movwf	??_vfpfcnvrt+2
  2879  076E  3F03               	moviw [3]fsr0
  2880  076F  00D3               	movwf	??_vfpfcnvrt+3
  2881  0770  0850               	movf	??_vfpfcnvrt,w
  2882  0771  00D5               	movwf	vfpfcnvrt@ll
  2883  0772  0851               	movf	??_vfpfcnvrt+1,w
  2884  0773  00D6               	movwf	vfpfcnvrt@ll+1
  2885  0774  0852               	movf	??_vfpfcnvrt+2,w
  2886  0775  00D7               	movwf	vfpfcnvrt@ll+2
  2887  0776  0853               	movf	??_vfpfcnvrt+3,w
  2888  0777  00D8               	movwf	vfpfcnvrt@ll+3
  2889  0778  3000               	movlw	0
  2890  0779  1BD8               	btfsc	vfpfcnvrt@ll+3,7
  2891  077A  30FF               	movlw	255
  2892  077B  00D9               	movwf	vfpfcnvrt@ll+4
  2893  077C  00DA               	movwf	vfpfcnvrt@ll+5
  2894  077D  00DB               	movwf	vfpfcnvrt@ll+6
  2895  077E  00DC               	movwf	vfpfcnvrt@ll+7
  2896  077F                     l2492:
  2897                           
  2898                           ;C:\Program Files\Microchip\xc8\v2.32\pic\sources\c99\common\doprnt.c: 863:             
      +                          return dtoa(fp, ll);
  2899  077F  0855               	movf	vfpfcnvrt@ll,w
  2900  0780  00B0               	movwf	dtoa@d
  2901  0781  0856               	movf	vfpfcnvrt@ll+1,w
  2902  0782  00B1               	movwf	dtoa@d+1
  2903  0783  0857               	movf	vfpfcnvrt@ll+2,w
  2904  0784  00B2               	movwf	dtoa@d+2
  2905  0785  0858               	movf	vfpfcnvrt@ll+3,w
  2906  0786  00B3               	movwf	dtoa@d+3
  2907  0787  0859               	movf	vfpfcnvrt@ll+4,w
  2908  0788  00B4               	movwf	dtoa@d+4
  2909  0789  085A               	movf	vfpfcnvrt@ll+5,w
  2910  078A  00B5               	movwf	dtoa@d+5
  2911  078B  085B               	movf	vfpfcnvrt@ll+6,w
  2912  078C  00B6               	movwf	dtoa@d+6
  2913  078D  085C               	movf	vfpfcnvrt@ll+7,w
  2914  078E  00B7               	movwf	dtoa@d+7
  2915  078F  085D               	movf	vfpfcnvrt@fp,w
  2916  0790  318C  24E2  3186   	fcall	_dtoa
  2917  0793  0140               	movlb	0	; select bank0
  2918  0794  0831               	movf	?_dtoa+1,w
  2919  0795  00CF               	movwf	?_vfpfcnvrt+1
  2920  0796  0830               	movf	?_dtoa,w
  2921  0797  00CE               	movwf	?_vfpfcnvrt
  2922  0798  2FF2               	goto	l783
  2923  0799                     l2496:
  2924                           
  2925                           ;C:\Program Files\Microchip\xc8\v2.32\pic\sources\c99\common\doprnt.c: 1372:         if 
      +                          ((*fmt)[0] == '%') {
  2926  0799  0140               	movlb	0	; select bank0
  2927  079A  084E               	movf	vfpfcnvrt@fmt,w
  2928  079B  0086               	movwf	6
  2929  079C  0187               	clrf	7
  2930  079D  3F40               	moviw [0]fsr1
  2931  079E  00D0               	movwf	??_vfpfcnvrt
  2932  079F  3F41               	moviw [1]fsr1
  2933  07A0  00D1               	movwf	??_vfpfcnvrt+1
  2934  07A1  0850               	movf	??_vfpfcnvrt,w
  2935  07A2  0084               	movwf	4
  2936  07A3  0851               	movf	??_vfpfcnvrt+1,w
  2937  07A4  0085               	movwf	5
  2938  07A5  0012               	moviw fsr0++
  2939  07A6  3A25               	xorlw	37
  2940  07A7  1D03               	btfss	3,2
  2941  07A8  2FAA               	goto	u3501
  2942  07A9  2FAB               	goto	u3500
  2943  07AA                     u3501:
  2944  07AA  2FC4               	goto	l2506
  2945  07AB                     u3500:
  2946  07AB                     l2498:
  2947                           
  2948                           ;C:\Program Files\Microchip\xc8\v2.32\pic\sources\c99\common\doprnt.c: 1373:            
      +                           ++*fmt;
  2949  07AB  084E               	movf	vfpfcnvrt@fmt,w
  2950  07AC  0086               	movwf	6
  2951  07AD  0187               	clrf	7
  2952  07AE  3001               	movlw	1
  2953  07AF  0781               	addwf	1,f
  2954  07B0  3141               	addfsr 1,1
  2955  07B1  1803               	skipnc
  2956  07B2  0A81               	incf	1,f
  2957  07B3                     l2500:
  2958                           
  2959                           ;C:\Program Files\Microchip\xc8\v2.32\pic\sources\c99\common\doprnt.c: 1374:            
      +                           fputc((int)'%', fp);
  2960  07B3  3025               	movlw	37
  2961  07B4  00F2               	movwf	fputc@c
  2962  07B5  3000               	movlw	0
  2963  07B6  00F3               	movwf	fputc@c+1
  2964  07B7  085D               	movf	vfpfcnvrt@fp,w
  2965  07B8  00D0               	movwf	??_vfpfcnvrt
  2966  07B9  0850               	movf	??_vfpfcnvrt,w
  2967  07BA  00F4               	movwf	fputc@fp
  2968  07BB  3196  269A  3186   	fcall	_fputc
  2969  07BE                     l2502:
  2970                           
  2971                           ;C:\Program Files\Microchip\xc8\v2.32\pic\sources\c99\common\doprnt.c: 1375:            
      +                           return 1;
  2972  07BE  3001               	movlw	1
  2973  07BF  0140               	movlb	0	; select bank0
  2974  07C0  00CE               	movwf	?_vfpfcnvrt
  2975  07C1  3000               	movlw	0
  2976  07C2  00CF               	movwf	?_vfpfcnvrt+1
  2977  07C3  2FF2               	goto	l783
  2978  07C4                     l2506:
  2979                           
  2980                           ;C:\Program Files\Microchip\xc8\v2.32\pic\sources\c99\common\doprnt.c: 1379:         ++*
      +                          fmt;
  2981  07C4  084E               	movf	vfpfcnvrt@fmt,w
  2982  07C5  0086               	movwf	6
  2983  07C6  0187               	clrf	7
  2984  07C7  3001               	movlw	1
  2985  07C8  0781               	addwf	1,f
  2986  07C9  3141               	addfsr 1,1
  2987  07CA  1803               	skipnc
  2988  07CB  0A81               	incf	1,f
  2989  07CC                     l2508:
  2990                           
  2991                           ;C:\Program Files\Microchip\xc8\v2.32\pic\sources\c99\common\doprnt.c: 1380:         ret
      +                          urn 0;
  2992  07CC  01CE               	clrf	?_vfpfcnvrt
  2993  07CD  01CF               	clrf	?_vfpfcnvrt+1
  2994  07CE  2FF2               	goto	l783
  2995  07CF                     l2512:
  2996                           
  2997                           ;C:\Program Files\Microchip\xc8\v2.32\pic\sources\c99\common\doprnt.c: 1384:     fputc((
      +                          int)(*fmt)[0], fp);
  2998  07CF  084E               	movf	vfpfcnvrt@fmt,w
  2999  07D0  0086               	movwf	6
  3000  07D1  0187               	clrf	7
  3001  07D2  3F40               	moviw [0]fsr1
  3002  07D3  00D0               	movwf	??_vfpfcnvrt
  3003  07D4  3F41               	moviw [1]fsr1
  3004  07D5  00D1               	movwf	??_vfpfcnvrt+1
  3005  07D6  0850               	movf	??_vfpfcnvrt,w
  3006  07D7  0084               	movwf	4
  3007  07D8  0851               	movf	??_vfpfcnvrt+1,w
  3008  07D9  0085               	movwf	5
  3009  07DA  0800               	movf	0,w	;code access
  3010  07DB  00D2               	movwf	??_vfpfcnvrt+2
  3011  07DC  01D3               	clrf	??_vfpfcnvrt+3
  3012  07DD  0852               	movf	??_vfpfcnvrt+2,w
  3013  07DE  00F2               	movwf	fputc@c
  3014  07DF  0853               	movf	??_vfpfcnvrt+3,w
  3015  07E0  00F3               	movwf	fputc@c+1
  3016  07E1  085D               	movf	vfpfcnvrt@fp,w
  3017  07E2  00D4               	movwf	??_vfpfcnvrt+4
  3018  07E3  0854               	movf	??_vfpfcnvrt+4,w
  3019  07E4  00F4               	movwf	fputc@fp
  3020  07E5  3196  269A  3186   	fcall	_fputc
  3021  07E8                     l2514:
  3022                           
  3023                           ;C:\Program Files\Microchip\xc8\v2.32\pic\sources\c99\common\doprnt.c: 1385:     ++*fmt;
  3024  07E8  0140               	movlb	0	; select bank0
  3025  07E9  084E               	movf	vfpfcnvrt@fmt,w
  3026  07EA  0086               	movwf	6
  3027  07EB  0187               	clrf	7
  3028  07EC  3001               	movlw	1
  3029  07ED  0781               	addwf	1,f
  3030  07EE  3141               	addfsr 1,1
  3031  07EF  1803               	skipnc
  3032  07F0  0A81               	incf	1,f
  3033  07F1  2FBE               	goto	l2502
  3034  07F2                     l783:
  3035  07F2  0008               	return
  3036  07F3                     __end_of_vfpfcnvrt:
  3037                           
  3038                           	psect	text7
  3039  172F                     __ptext7:	
  3040 ;; *************** function _strncmp *****************
  3041 ;; Defined at:
  3042 ;;		line 3 in file "C:\Program Files\Microchip\xc8\v2.32\pic\sources\c99\common\strncmp.c"
  3043 ;; Parameters:    Size  Location     Type
  3044 ;;  _l              2    1[COMMON] PTR const unsigned char 
  3045 ;;		 -> STR_1(5), 
  3046 ;;  _r              2    3[COMMON] PTR const unsigned char 
  3047 ;;		 -> STR_8(3), STR_4(3), 
  3048 ;;  n               2    5[COMMON] unsigned int 
  3049 ;; Auto vars:     Size  Location     Type
  3050 ;;  r               2   10[COMMON] PTR const unsigned char 
  3051 ;;		 -> STR_8(3), STR_4(3), 
  3052 ;;  l               2    8[COMMON] PTR const unsigned char 
  3053 ;;		 -> STR_1(5), 
  3054 ;; Return value:  Size  Location     Type
  3055 ;;                  2    1[COMMON] int 
  3056 ;; Registers used:
  3057 ;;		wreg, fsr0l, fsr0h, status,2, status,0, pclath
  3058 ;; Tracked objects:
  3059 ;;		On entry : 0/0
  3060 ;;		On exit  : 0/0
  3061 ;;		Unchanged: 0/0
  3062 ;; Data sizes:     COMMON   BANK0   BANK1   BANK2   BANK3   BANK4   BANK5   BANK6   BANK7   BANK8   BANK9  BANK10  BANK1
      +1  BANK12  BANK13  BANK14  BANK15  BANK16  BANK17  BANK18  BANK19  BANK20  BANK21  BANK22  BANK23  BANK24  BANK25
  3063 ;;      Params:         6       0       0       0       0       0       0       0       0       0       0       0       
      +0       0       0       0       0       0       0       0       0       0       0       0       0       0       0
  3064 ;;      Locals:         4       0       0       0       0       0       0       0       0       0       0       0       
      +0       0       0       0       0       0       0       0       0       0       0       0       0       0       0
  3065 ;;      Temps:          1       0       0       0       0       0       0       0       0       0       0       0       
      +0       0       0       0       0       0       0       0       0       0       0       0       0       0       0
  3066 ;;      Totals:        11       0       0       0       0       0       0       0       0       0       0       0       
      +0       0       0       0       0       0       0       0       0       0       0       0       0       0       0
  3067 ;;Total ram usage:       11 bytes
  3068 ;; Hardware stack levels used: 1
  3069 ;; Hardware stack levels required when called: 1
  3070 ;; This function calls:
  3071 ;;		Nothing
  3072 ;; This function is called by:
  3073 ;;		_vfpfcnvrt
  3074 ;; This function uses a non-reentrant model
  3075 ;;
  3076                           
  3077                           
  3078                           ;psect for function _strncmp
  3079  172F                     _strncmp:
  3080  172F                     l2268:	
  3081                           ;incstack = 0
  3082                           ; Regs used in _strncmp: [wreg-fsr0h+status,2+status,0+pclath]
  3083                           
  3084  172F  0872               	movf	strncmp@_l+1,w
  3085  1730  00F9               	movwf	strncmp@l+1
  3086  1731  0871               	movf	strncmp@_l,w
  3087  1732  00F8               	movwf	strncmp@l
  3088  1733  0874               	movf	strncmp@_r+1,w
  3089  1734  00FB               	movwf	strncmp@r+1
  3090  1735  0873               	movf	strncmp@_r,w
  3091  1736  00FA               	movwf	strncmp@r
  3092  1737                     l2270:
  3093  1737  3001               	movlw	1
  3094  1738  02F5               	subwf	strncmp@n,f
  3095  1739  3000               	movlw	0
  3096  173A  3BF6               	subwfb	strncmp@n+1,f
  3097  173B  0A75               	incf	strncmp@n,w
  3098  173C  1D03               	skipz
  3099  173D  2F42               	goto	u3081
  3100  173E  0A76               	incf	strncmp@n+1,w
  3101  173F  1D03               	btfss	3,2
  3102  1740  2F42               	goto	u3081
  3103  1741  2F43               	goto	u3080
  3104  1742                     u3081:
  3105  1742  2F52               	goto	l2278
  3106  1743                     u3080:
  3107  1743                     l2272:
  3108  1743  01F1               	clrf	?_strncmp
  3109  1744  01F2               	clrf	?_strncmp+1
  3110  1745  2F8A               	goto	l845
  3111  1746                     l2276:
  3112  1746  3001               	movlw	1
  3113  1747  07F8               	addwf	strncmp@l,f
  3114  1748  3000               	movlw	0
  3115  1749  3DF9               	addwfc	strncmp@l+1,f
  3116  174A  3001               	movlw	1
  3117  174B  07FA               	addwf	strncmp@r,f
  3118  174C  3000               	movlw	0
  3119  174D  3DFB               	addwfc	strncmp@r+1,f
  3120  174E  3001               	movlw	1
  3121  174F  02F5               	subwf	strncmp@n,f
  3122  1750  3000               	movlw	0
  3123  1751  3BF6               	subwfb	strncmp@n+1,f
  3124  1752                     l2278:
  3125  1752  0878               	movf	strncmp@l,w
  3126  1753  0084               	movwf	4
  3127  1754  0879               	movf	strncmp@l+1,w
  3128  1755  0085               	movwf	5
  3129  1756  0012               	moviw fsr0++
  3130  1757  1903               	btfsc	3,2
  3131  1758  2F5A               	goto	u3091
  3132  1759  2F5B               	goto	u3090
  3133  175A                     u3091:
  3134  175A  2F7A               	goto	l2286
  3135  175B                     u3090:
  3136  175B                     l2280:
  3137  175B  087A               	movf	strncmp@r,w
  3138  175C  0084               	movwf	4
  3139  175D  087B               	movf	strncmp@r+1,w
  3140  175E  0085               	movwf	5
  3141  175F  0012               	moviw fsr0++
  3142  1760  1903               	btfsc	3,2
  3143  1761  2F63               	goto	u3101
  3144  1762  2F64               	goto	u3100
  3145  1763                     u3101:
  3146  1763  2F7A               	goto	l2286
  3147  1764                     u3100:
  3148  1764                     l2282:
  3149  1764  0875               	movf	strncmp@n,w
  3150  1765  0476               	iorwf	strncmp@n+1,w
  3151  1766  1903               	btfsc	3,2
  3152  1767  2F69               	goto	u3111
  3153  1768  2F6A               	goto	u3110
  3154  1769                     u3111:
  3155  1769  2F7A               	goto	l2286
  3156  176A                     u3110:
  3157  176A                     l2284:
  3158  176A  087A               	movf	strncmp@r,w
  3159  176B  0084               	movwf	4
  3160  176C  087B               	movf	strncmp@r+1,w
  3161  176D  0085               	movwf	5
  3162  176E  0800               	movf	0,w	;code access
  3163  176F  00F7               	movwf	??_strncmp
  3164  1770  0878               	movf	strncmp@l,w
  3165  1771  0084               	movwf	4
  3166  1772  0879               	movf	strncmp@l+1,w
  3167  1773  0085               	movwf	5
  3168  1774  0800               	movf	0,w	;code access
  3169  1775  0677               	xorwf	??_strncmp,w
  3170  1776  1903               	skipnz
  3171  1777  2F79               	goto	u3121
  3172  1778  2F7A               	goto	u3120
  3173  1779                     u3121:
  3174  1779  2F46               	goto	l2276
  3175  177A                     u3120:
  3176  177A                     l2286:
  3177  177A  0878               	movf	strncmp@l,w
  3178  177B  0084               	movwf	4
  3179  177C  0879               	movf	strncmp@l+1,w
  3180  177D  0085               	movwf	5
  3181  177E  0800               	movf	0,w	;code access
  3182  177F  00F7               	movwf	??_strncmp
  3183  1780  087A               	movf	strncmp@r,w
  3184  1781  0084               	movwf	4
  3185  1782  087B               	movf	strncmp@r+1,w
  3186  1783  0085               	movwf	5
  3187  1784  0800               	movf	0,w	;code access
  3188  1785  0277               	subwf	??_strncmp,w
  3189  1786  00F1               	movwf	?_strncmp
  3190  1787  01F2               	clrf	?_strncmp+1
  3191  1788  1C03               	skipc
  3192  1789  03F2               	decf	?_strncmp+1,f
  3193  178A                     l845:
  3194  178A  0008               	return
  3195  178B                     __end_of_strncmp:
  3196                           
  3197                           	psect	text8
  3198  0CE2                     __ptext8:	
  3199 ;; *************** function _dtoa *****************
  3200 ;; Defined at:
  3201 ;;		line 287 in file "C:\Program Files\Microchip\xc8\v2.32\pic\sources\c99\common\doprnt.c"
  3202 ;; Parameters:    Size  Location     Type
  3203 ;;  fp              1    wreg     PTR struct _IO_FILE
  3204 ;;		 -> NULL(0), 
  3205 ;;  d               8   16[BANK0 ] long long 
  3206 ;; Auto vars:     Size  Location     Type
  3207 ;;  fp              1   31[BANK0 ] PTR struct _IO_FILE
  3208 ;;		 -> NULL(0), 
  3209 ;;  n               8   36[BANK0 ] long long 
  3210 ;;  i               2   44[BANK0 ] int 
  3211 ;;  s               2   34[BANK0 ] int 
  3212 ;;  w               2   32[BANK0 ] int 
  3213 ;;  p               2   29[BANK0 ] int 
  3214 ;; Return value:  Size  Location     Type
  3215 ;;                  2   16[BANK0 ] int 
  3216 ;; Registers used:
  3217 ;;		wreg, fsr1l, fsr1h, status,2, status,0, pclath, cstack
  3218 ;; Tracked objects:
  3219 ;;		On entry : 0/0
  3220 ;;		On exit  : 0/0
  3221 ;;		Unchanged: 0/0
  3222 ;; Data sizes:     COMMON   BANK0   BANK1   BANK2   BANK3   BANK4   BANK5   BANK6   BANK7   BANK8   BANK9  BANK10  BANK1
      +1  BANK12  BANK13  BANK14  BANK15  BANK16  BANK17  BANK18  BANK19  BANK20  BANK21  BANK22  BANK23  BANK24  BANK25
  3223 ;;      Params:         0       8       0       0       0       0       0       0       0       0       0       0       
      +0       0       0       0       0       0       0       0       0       0       0       0       0       0       0
  3224 ;;      Locals:         0      19       0       0       0       0       0       0       0       0       0       0       
      +0       0       0       0       0       0       0       0       0       0       0       0       0       0       0
  3225 ;;      Temps:          0       3       0       0       0       0       0       0       0       0       0       0       
      +0       0       0       0       0       0       0       0       0       0       0       0       0       0       0
  3226 ;;      Totals:         0      30       0       0       0       0       0       0       0       0       0       0       
      +0       0       0       0       0       0       0       0       0       0       0       0       0       0       0
  3227 ;;Total ram usage:       30 bytes
  3228 ;; Hardware stack levels used: 1
  3229 ;; Hardware stack levels required when called: 5
  3230 ;; This function calls:
  3231 ;;		___aodiv
  3232 ;;		___aomod
  3233 ;;		_abs
  3234 ;;		_pad
  3235 ;; This function is called by:
  3236 ;;		_vfpfcnvrt
  3237 ;; This function uses a non-reentrant model
  3238 ;;
  3239                           
  3240                           
  3241                           ;psect for function _dtoa
  3242  0CE2                     _dtoa:
  3243                           
  3244                           ;incstack = 0
  3245                           ; Regs used in _dtoa: [wreg+fsr1l+fsr1h+status,2+status,0+pclath+cstack]
  3246                           ;dtoa@fp stored from wreg
  3247  0CE2  0140               	movlb	0	; select bank0
  3248  0CE3  00BF               	movwf	dtoa@fp
  3249  0CE4                     l2210:
  3250                           
  3251                           ;C:\Program Files\Microchip\xc8\v2.32\pic\sources\c99\common\doprnt.c: 287: static int d
      +                          toa(FILE *fp, long long d);C:\Program Files\Microchip\xc8\v2.32\pic\sources\c99\common\d
      +                          oprnt.c: 288: {;C:\Program Files\Microchip\xc8\v2.32\pic\sources\c99\common\doprnt.c: 28
      +                          9:     int i, p, s, w;;C:\Program Files\Microchip\xc8\v2.32\pic\sources\c99\common\doprn
      +                          t.c: 290:     long long n;;C:\Program Files\Microchip\xc8\v2.32\pic\sources\c99\common\d
      +                          oprnt.c: 293:     n = d;
  3252  0CE4  0830               	movf	dtoa@d,w
  3253  0CE5  00C4               	movwf	dtoa@n
  3254  0CE6  0831               	movf	dtoa@d+1,w
  3255  0CE7  00C5               	movwf	dtoa@n+1
  3256  0CE8  0832               	movf	dtoa@d+2,w
  3257  0CE9  00C6               	movwf	dtoa@n+2
  3258  0CEA  0833               	movf	dtoa@d+3,w
  3259  0CEB  00C7               	movwf	dtoa@n+3
  3260  0CEC  0834               	movf	dtoa@d+4,w
  3261  0CED  00C8               	movwf	dtoa@n+4
  3262  0CEE  0835               	movf	dtoa@d+5,w
  3263  0CEF  00C9               	movwf	dtoa@n+5
  3264  0CF0  0836               	movf	dtoa@d+6,w
  3265  0CF1  00CA               	movwf	dtoa@n+6
  3266  0CF2  0837               	movf	dtoa@d+7,w
  3267  0CF3  00CB               	movwf	dtoa@n+7
  3268  0CF4                     l2212:
  3269                           
  3270                           ;C:\Program Files\Microchip\xc8\v2.32\pic\sources\c99\common\doprnt.c: 294:     s = n < 
      +                          0 ? 1 : 0;
  3271  0CF4  3044               	movlw	low dtoa@n
  3272  0CF5  0086               	movwf	6
  3273  0CF6  3000               	movlw	high dtoa@n
  3274  0CF7  0087               	movwf	7
  3275  0CF8  3F47               	moviw [7]fsr1
  3276  0CF9  00B8               	movwf	??_dtoa
  3277  0CFA  1BB8               	btfsc	??_dtoa,7
  3278  0CFB  2CFD               	goto	u2921
  3279  0CFC  2CFF               	goto	u2920
  3280  0CFD                     u2921:
  3281  0CFD  3001               	movlw	1
  3282  0CFE  2D00               	goto	u2930
  3283  0CFF                     u2920:
  3284  0CFF  3000               	movlw	0
  3285  0D00                     u2930:
  3286  0D00  0140               	movlb	0	; select bank0
  3287  0D01  00B9               	movwf	??_dtoa+1
  3288  0D02  01BA               	clrf	??_dtoa+2
  3289  0D03  0839               	movf	??_dtoa+1,w
  3290  0D04  00C2               	movwf	dtoa@s
  3291  0D05  083A               	movf	??_dtoa+2,w
  3292  0D06  00C3               	movwf	dtoa@s+1
  3293  0D07                     l2214:
  3294                           
  3295                           ;C:\Program Files\Microchip\xc8\v2.32\pic\sources\c99\common\doprnt.c: 295:     if (s) {
  3296  0D07  0842               	movf	dtoa@s,w
  3297  0D08  0443               	iorwf	dtoa@s+1,w
  3298  0D09  1903               	btfsc	3,2
  3299  0D0A  2D0C               	goto	u2941
  3300  0D0B  2D0D               	goto	u2940
  3301  0D0C                     u2941:
  3302  0D0C  2D2B               	goto	l753
  3303  0D0D                     u2940:
  3304  0D0D                     l2216:
  3305                           
  3306                           ;C:\Program Files\Microchip\xc8\v2.32\pic\sources\c99\common\doprnt.c: 296:         n = 
      +                          -n;
  3307  0D0D  09C4               	comf	dtoa@n,f
  3308  0D0E  09C5               	comf	dtoa@n+1,f
  3309  0D0F  09C6               	comf	dtoa@n+2,f
  3310  0D10  09C7               	comf	dtoa@n+3,f
  3311  0D11  09C8               	comf	dtoa@n+4,f
  3312  0D12  09C9               	comf	dtoa@n+5,f
  3313  0D13  09CA               	comf	dtoa@n+6,f
  3314  0D14  09CB               	comf	dtoa@n+7,f
  3315  0D15  0AC4               	incf	dtoa@n,f
  3316  0D16  1D03               	skipz
  3317  0D17  2D2B               	goto	u295lld
  3318  0D18  0AC5               	incf	dtoa@n+1,f
  3319  0D19  1D03               	skipz
  3320  0D1A  2D2B               	goto	u295lld
  3321  0D1B  0AC6               	incf	dtoa@n+2,f
  3322  0D1C  1D03               	skipz
  3323  0D1D  2D2B               	goto	u295lld
  3324  0D1E  0AC7               	incf	dtoa@n+3,f
  3325  0D1F  1D03               	skipz
  3326  0D20  2D2B               	goto	u295lld
  3327  0D21  0AC8               	incf	dtoa@n+4,f
  3328  0D22  1D03               	skipz
  3329  0D23  2D2B               	goto	u295lld
  3330  0D24  0AC9               	incf	dtoa@n+5,f
  3331  0D25  1D03               	skipz
  3332  0D26  2D2B               	goto	u295lld
  3333  0D27  0ACA               	incf	dtoa@n+6,f
  3334  0D28  1D03               	skipz
  3335  0D29  2D2B               	goto	u295lld
  3336  0D2A  0ACB               	incf	dtoa@n+7,f
  3337  0D2B                     u295lld:
  3338  0D2B                     l753:	
  3339                           ;C:\Program Files\Microchip\xc8\v2.32\pic\sources\c99\common\doprnt.c: 297:     }
  3340                           
  3341                           
  3342                           ;C:\Program Files\Microchip\xc8\v2.32\pic\sources\c99\common\doprnt.c: 300:     if (!(pr
      +                          ec < 0)) {
  3343  0D2B  0141               	movlb	1	; select bank1
  3344  0D2C  1BAD               	btfsc	(_prec+1)^(0+128),7
  3345  0D2D  2D2F               	goto	u2961
  3346  0D2E  2D30               	goto	u2960
  3347  0D2F                     u2961:
  3348  0D2F  2D35               	goto	l754
  3349  0D30                     u2960:
  3350  0D30                     l2218:
  3351                           
  3352                           ;C:\Program Files\Microchip\xc8\v2.32\pic\sources\c99\common\doprnt.c: 301:         flag
      +                          s &= ~(1 << 1);
  3353  0D30  30FD               	movlw	253
  3354  0D31  0140               	movlb	0	; select bank0
  3355  0D32  05ED               	andwf	_flags,f
  3356  0D33  30FF               	movlw	255
  3357  0D34  05EE               	andwf	_flags+1,f
  3358  0D35                     l754:	
  3359                           ;C:\Program Files\Microchip\xc8\v2.32\pic\sources\c99\common\doprnt.c: 302:     }
  3360                           
  3361                           
  3362                           ;C:\Program Files\Microchip\xc8\v2.32\pic\sources\c99\common\doprnt.c: 303:     p = (0 <
      +                           prec) ? prec : 1;
  3363  0D35  0141               	movlb	1	; select bank1
  3364  0D36  082D               	movf	(_prec+1)^(0+128),w
  3365  0D37  3A80               	xorlw	128
  3366  0D38  0140               	movlb	0	; select bank0
  3367  0D39  00B8               	movwf	??_dtoa
  3368  0D3A  3080               	movlw	128
  3369  0D3B  0238               	subwf	??_dtoa,w
  3370  0D3C  1D03               	skipz
  3371  0D3D  2D41               	goto	u2975
  3372  0D3E  3001               	movlw	1
  3373  0D3F  0141               	movlb	1	; select bank1
  3374  0D40  022C               	subwf	_prec^(0+128),w
  3375  0D41                     u2975:
  3376  0D41  1803               	skipnc
  3377  0D42  2D44               	goto	u2971
  3378  0D43  2D45               	goto	u2970
  3379  0D44                     u2971:
  3380  0D44  2D4B               	goto	l2222
  3381  0D45                     u2970:
  3382  0D45                     l2220:
  3383  0D45  3001               	movlw	1
  3384  0D46  0140               	movlb	0	; select bank0
  3385  0D47  00BD               	movwf	dtoa@p
  3386  0D48  3000               	movlw	0
  3387  0D49  00BE               	movwf	dtoa@p+1
  3388  0D4A  2D53               	goto	l758
  3389  0D4B                     l2222:
  3390  0D4B  0141               	movlb	1	; select bank1
  3391  0D4C  082D               	movf	(_prec+1)^(0+128),w
  3392  0D4D  0140               	movlb	0	; select bank0
  3393  0D4E  00BE               	movwf	dtoa@p+1
  3394  0D4F  0141               	movlb	1	; select bank1
  3395  0D50  082C               	movf	_prec^(0+128),w
  3396  0D51  0140               	movlb	0	; select bank0
  3397  0D52  00BD               	movwf	dtoa@p
  3398  0D53                     l758:
  3399                           
  3400                           ;C:\Program Files\Microchip\xc8\v2.32\pic\sources\c99\common\doprnt.c: 304:     w = widt
      +                          h;
  3401  0D53  0141               	movlb	1	; select bank1
  3402  0D54  082B               	movf	(_width+1)^(0+128),w
  3403  0D55  0140               	movlb	0	; select bank0
  3404  0D56  00C1               	movwf	dtoa@w+1
  3405  0D57  0141               	movlb	1	; select bank1
  3406  0D58  082A               	movf	_width^(0+128),w
  3407  0D59  0140               	movlb	0	; select bank0
  3408  0D5A  00C0               	movwf	dtoa@w
  3409  0D5B                     l2224:
  3410                           
  3411                           ;C:\Program Files\Microchip\xc8\v2.32\pic\sources\c99\common\doprnt.c: 305:     if (s ||
      +                           (flags & (1 << 2))) {
  3412  0D5B  0842               	movf	dtoa@s,w
  3413  0D5C  0443               	iorwf	dtoa@s+1,w
  3414  0D5D  1D03               	btfss	3,2
  3415  0D5E  2D60               	goto	u2981
  3416  0D5F  2D61               	goto	u2980
  3417  0D60                     u2981:
  3418  0D60  2D65               	goto	l2228
  3419  0D61                     u2980:
  3420  0D61                     l2226:
  3421  0D61  1D6D               	btfss	_flags,2
  3422  0D62  2D64               	goto	u2991
  3423  0D63  2D65               	goto	u2990
  3424  0D64                     u2991:
  3425  0D64  2D69               	goto	l759
  3426  0D65                     u2990:
  3427  0D65                     l2228:
  3428                           
  3429                           ;C:\Program Files\Microchip\xc8\v2.32\pic\sources\c99\common\doprnt.c: 306:         --w;
  3430  0D65  30FF               	movlw	255
  3431  0D66  07C0               	addwf	dtoa@w,f
  3432  0D67  30FF               	movlw	255
  3433  0D68  3DC1               	addwfc	dtoa@w+1,f
  3434  0D69                     l759:	
  3435                           ;C:\Program Files\Microchip\xc8\v2.32\pic\sources\c99\common\doprnt.c: 307:     }
  3436                           
  3437                           
  3438                           ;C:\Program Files\Microchip\xc8\v2.32\pic\sources\c99\common\doprnt.c: 310:     i = size
      +                          of(dbuf) - 1;
  3439  0D69  301F               	movlw	31
  3440  0D6A  00CC               	movwf	dtoa@i
  3441  0D6B  3000               	movlw	0
  3442  0D6C  00CD               	movwf	dtoa@i+1
  3443  0D6D                     l2230:
  3444                           
  3445                           ;C:\Program Files\Microchip\xc8\v2.32\pic\sources\c99\common\doprnt.c: 311:     dbuf[i] 
      +                          = '\0';
  3446  0D6D  0141               	movlb	1	; select bank1
  3447  0D6E  01CE               	clrf	(_dbuf^(0+128)+31)
  3448                           
  3449                           ;C:\Program Files\Microchip\xc8\v2.32\pic\sources\c99\common\doprnt.c: 312:     while (!
      +                          (i < 1) && (n || (0 < p) || ((0 < w) && (flags & (1 << 1))))) {
  3450  0D6F  2DD8               	goto	l762
  3451  0D70                     l2232:
  3452                           
  3453                           ;C:\Program Files\Microchip\xc8\v2.32\pic\sources\c99\common\doprnt.c: 313:         --i;
  3454  0D70  30FF               	movlw	255
  3455  0D71  0140               	movlb	0	; select bank0
  3456  0D72  07CC               	addwf	dtoa@i,f
  3457  0D73  30FF               	movlw	255
  3458  0D74  3DCD               	addwfc	dtoa@i+1,f
  3459  0D75                     l2234:
  3460                           
  3461                           ;C:\Program Files\Microchip\xc8\v2.32\pic\sources\c99\common\doprnt.c: 314:         dbuf
      +                          [i] = (char)((int)'0' + abs(n % 10));
  3462  0D75  300A               	movlw	10
  3463  0D76  00A0               	movwf	___aomod@divisor
  3464  0D77  01A1               	clrf	___aomod@divisor+1
  3465  0D78  01A2               	clrf	___aomod@divisor+2
  3466  0D79  01A3               	clrf	___aomod@divisor+3
  3467  0D7A  01A4               	clrf	___aomod@divisor+4
  3468  0D7B  01A5               	clrf	___aomod@divisor+5
  3469  0D7C  01A6               	clrf	___aomod@divisor+6
  3470  0D7D  01A7               	clrf	___aomod@divisor+7
  3471  0D7E  0844               	movf	dtoa@n,w
  3472  0D7F  00A8               	movwf	___aomod@dividend
  3473  0D80  0845               	movf	dtoa@n+1,w
  3474  0D81  00A9               	movwf	___aomod@dividend+1
  3475  0D82  0846               	movf	dtoa@n+2,w
  3476  0D83  00AA               	movwf	___aomod@dividend+2
  3477  0D84  0847               	movf	dtoa@n+3,w
  3478  0D85  00AB               	movwf	___aomod@dividend+3
  3479  0D86  0848               	movf	dtoa@n+4,w
  3480  0D87  00AC               	movwf	___aomod@dividend+4
  3481  0D88  0849               	movf	dtoa@n+5,w
  3482  0D89  00AD               	movwf	___aomod@dividend+5
  3483  0D8A  084A               	movf	dtoa@n+6,w
  3484  0D8B  00AE               	movwf	___aomod@dividend+6
  3485  0D8C  084B               	movf	dtoa@n+7,w
  3486  0D8D  00AF               	movwf	___aomod@dividend+7
  3487  0D8E  318A  22F7  318C   	fcall	___aomod
  3488  0D91  0140               	movlb	0	; select bank0
  3489  0D92  0821               	movf	?___aomod+1,w
  3490  0D93  00F5               	movwf	abs@a+1
  3491  0D94  0820               	movf	?___aomod,w
  3492  0D95  00F4               	movwf	abs@a
  3493  0D96  3195  25C0  318C   	fcall	_abs
  3494  0D99  0874               	movf	?_abs,w
  3495  0D9A  3E30               	addlw	48
  3496  0D9B  0140               	movlb	0	; select bank0
  3497  0D9C  00B8               	movwf	??_dtoa
  3498  0D9D  084C               	movf	dtoa@i,w
  3499  0D9E  3EAF               	addlw	(low (_dbuf| 0))& (0+255)
  3500  0D9F  0086               	movwf	6
  3501  0DA0  0187               	clrf	7
  3502  0DA1  0838               	movf	??_dtoa,w
  3503  0DA2  0081               	movwf	1
  3504  0DA3                     l2236:
  3505                           
  3506                           ;C:\Program Files\Microchip\xc8\v2.32\pic\sources\c99\common\doprnt.c: 315:         --p;
  3507  0DA3  30FF               	movlw	255
  3508  0DA4  07BD               	addwf	dtoa@p,f
  3509  0DA5  30FF               	movlw	255
  3510  0DA6  3DBE               	addwfc	dtoa@p+1,f
  3511  0DA7                     l2238:
  3512                           
  3513                           ;C:\Program Files\Microchip\xc8\v2.32\pic\sources\c99\common\doprnt.c: 316:         --w;
  3514  0DA7  30FF               	movlw	255
  3515  0DA8  07C0               	addwf	dtoa@w,f
  3516  0DA9  30FF               	movlw	255
  3517  0DAA  3DC1               	addwfc	dtoa@w+1,f
  3518  0DAB                     l2240:
  3519                           
  3520                           ;C:\Program Files\Microchip\xc8\v2.32\pic\sources\c99\common\doprnt.c: 317:         n = 
      +                          n / 10;
  3521  0DAB  300A               	movlw	10
  3522  0DAC  00A0               	movwf	___aodiv@divisor
  3523  0DAD  01A1               	clrf	___aodiv@divisor+1
  3524  0DAE  01A2               	clrf	___aodiv@divisor+2
  3525  0DAF  01A3               	clrf	___aodiv@divisor+3
  3526  0DB0  01A4               	clrf	___aodiv@divisor+4
  3527  0DB1  01A5               	clrf	___aodiv@divisor+5
  3528  0DB2  01A6               	clrf	___aodiv@divisor+6
  3529  0DB3  01A7               	clrf	___aodiv@divisor+7
  3530  0DB4  0844               	movf	dtoa@n,w
  3531  0DB5  00A8               	movwf	___aodiv@dividend
  3532  0DB6  0845               	movf	dtoa@n+1,w
  3533  0DB7  00A9               	movwf	___aodiv@dividend+1
  3534  0DB8  0846               	movf	dtoa@n+2,w
  3535  0DB9  00AA               	movwf	___aodiv@dividend+2
  3536  0DBA  0847               	movf	dtoa@n+3,w
  3537  0DBB  00AB               	movwf	___aodiv@dividend+3
  3538  0DBC  0848               	movf	dtoa@n+4,w
  3539  0DBD  00AC               	movwf	___aodiv@dividend+4
  3540  0DBE  0849               	movf	dtoa@n+5,w
  3541  0DBF  00AD               	movwf	___aodiv@dividend+5
  3542  0DC0  084A               	movf	dtoa@n+6,w
  3543  0DC1  00AE               	movwf	___aodiv@dividend+6
  3544  0DC2  084B               	movf	dtoa@n+7,w
  3545  0DC3  00AF               	movwf	___aodiv@dividend+7
  3546  0DC4  318B  23E1  318C   	fcall	___aodiv
  3547  0DC7  0140               	movlb	0	; select bank0
  3548  0DC8  0820               	movf	?___aodiv,w
  3549  0DC9  00C4               	movwf	dtoa@n
  3550  0DCA  0821               	movf	?___aodiv+1,w
  3551  0DCB  00C5               	movwf	dtoa@n+1
  3552  0DCC  0822               	movf	?___aodiv+2,w
  3553  0DCD  00C6               	movwf	dtoa@n+2
  3554  0DCE  0823               	movf	?___aodiv+3,w
  3555  0DCF  00C7               	movwf	dtoa@n+3
  3556  0DD0  0824               	movf	?___aodiv+4,w
  3557  0DD1  00C8               	movwf	dtoa@n+4
  3558  0DD2  0825               	movf	?___aodiv+5,w
  3559  0DD3  00C9               	movwf	dtoa@n+5
  3560  0DD4  0826               	movf	?___aodiv+6,w
  3561  0DD5  00CA               	movwf	dtoa@n+6
  3562  0DD6  0827               	movf	?___aodiv+7,w
  3563  0DD7  00CB               	movwf	dtoa@n+7
  3564  0DD8                     l762:	
  3565                           ;C:\Program Files\Microchip\xc8\v2.32\pic\sources\c99\common\doprnt.c: 318:     }
  3566                           
  3567                           
  3568                           ;C:\Program Files\Microchip\xc8\v2.32\pic\sources\c99\common\doprnt.c: 312:     while (!
      +                          (i < 1) && (n || (0 < p) || ((0 < w) && (flags & (1 << 1))))) {
  3569  0DD8  0140               	movlb	0	; select bank0
  3570  0DD9  084D               	movf	dtoa@i+1,w
  3571  0DDA  3A80               	xorlw	128
  3572  0DDB  00B8               	movwf	??_dtoa
  3573  0DDC  3080               	movlw	128
  3574  0DDD  0238               	subwf	??_dtoa,w
  3575  0DDE  1D03               	skipz
  3576  0DDF  2DE2               	goto	u3005
  3577  0DE0  3001               	movlw	1
  3578  0DE1  024C               	subwf	dtoa@i,w
  3579  0DE2                     u3005:
  3580  0DE2  1C03               	skipc
  3581  0DE3  2DE5               	goto	u3001
  3582  0DE4  2DE6               	goto	u3000
  3583  0DE5                     u3001:
  3584  0DE5  2E13               	goto	l2250
  3585  0DE6                     u3000:
  3586  0DE6                     l2242:
  3587  0DE6  0140               	movlb	0	; select bank0
  3588  0DE7  0844               	movf	dtoa@n,w
  3589  0DE8  0445               	iorwf	dtoa@n+1,w
  3590  0DE9  0446               	iorwf	dtoa@n+2,w
  3591  0DEA  0447               	iorwf	dtoa@n+3,w
  3592  0DEB  0448               	iorwf	dtoa@n+4,w
  3593  0DEC  0449               	iorwf	dtoa@n+5,w
  3594  0DED  044A               	iorwf	dtoa@n+6,w
  3595  0DEE  044B               	iorwf	dtoa@n+7,w
  3596  0DEF  1D03               	skipz
  3597  0DF0  2DF2               	goto	u3011
  3598  0DF1  2DF3               	goto	u3010
  3599  0DF2                     u3011:
  3600  0DF2  2D70               	goto	l2232
  3601  0DF3                     u3010:
  3602  0DF3                     l2244:
  3603  0DF3  083E               	movf	dtoa@p+1,w
  3604  0DF4  3A80               	xorlw	128
  3605  0DF5  00B8               	movwf	??_dtoa
  3606  0DF6  3080               	movlw	128
  3607  0DF7  0238               	subwf	??_dtoa,w
  3608  0DF8  1D03               	skipz
  3609  0DF9  2DFC               	goto	u3025
  3610  0DFA  3001               	movlw	1
  3611  0DFB  023D               	subwf	dtoa@p,w
  3612  0DFC                     u3025:
  3613  0DFC  1803               	skipnc
  3614  0DFD  2DFF               	goto	u3021
  3615  0DFE  2E00               	goto	u3020
  3616  0DFF                     u3021:
  3617  0DFF  2D70               	goto	l2232
  3618  0E00                     u3020:
  3619  0E00                     l2246:
  3620  0E00  0140               	movlb	0	; select bank0
  3621  0E01  0841               	movf	dtoa@w+1,w
  3622  0E02  3A80               	xorlw	128
  3623  0E03  00B8               	movwf	??_dtoa
  3624  0E04  3080               	movlw	128
  3625  0E05  0238               	subwf	??_dtoa,w
  3626  0E06  1D03               	skipz
  3627  0E07  2E0A               	goto	u3035
  3628  0E08  3001               	movlw	1
  3629  0E09  0240               	subwf	dtoa@w,w
  3630  0E0A                     u3035:
  3631  0E0A  1C03               	skipc
  3632  0E0B  2E0D               	goto	u3031
  3633  0E0C  2E0E               	goto	u3030
  3634  0E0D                     u3031:
  3635  0E0D  2E13               	goto	l2250
  3636  0E0E                     u3030:
  3637  0E0E                     l2248:
  3638  0E0E  0140               	movlb	0	; select bank0
  3639  0E0F  18ED               	btfsc	_flags,1
  3640  0E10  2E12               	goto	u3041
  3641  0E11  2E13               	goto	u3040
  3642  0E12                     u3041:
  3643  0E12  2D70               	goto	l2232
  3644  0E13                     u3040:
  3645  0E13                     l2250:
  3646                           
  3647                           ;C:\Program Files\Microchip\xc8\v2.32\pic\sources\c99\common\doprnt.c: 321:     if (s ||
      +                           (flags & (1 << 2))) {
  3648  0E13  0140               	movlb	0	; select bank0
  3649  0E14  0842               	movf	dtoa@s,w
  3650  0E15  0443               	iorwf	dtoa@s+1,w
  3651  0E16  1D03               	btfss	3,2
  3652  0E17  2E19               	goto	u3051
  3653  0E18  2E1A               	goto	u3050
  3654  0E19                     u3051:
  3655  0E19  2E1E               	goto	l2254
  3656  0E1A                     u3050:
  3657  0E1A                     l2252:
  3658  0E1A  1D6D               	btfss	_flags,2
  3659  0E1B  2E1D               	goto	u3061
  3660  0E1C  2E1E               	goto	u3060
  3661  0E1D                     u3061:
  3662  0E1D  2E39               	goto	l2264
  3663  0E1E                     u3060:
  3664  0E1E                     l2254:
  3665                           
  3666                           ;C:\Program Files\Microchip\xc8\v2.32\pic\sources\c99\common\doprnt.c: 322:         --i;
  3667  0E1E  30FF               	movlw	255
  3668  0E1F  07CC               	addwf	dtoa@i,f
  3669  0E20  30FF               	movlw	255
  3670  0E21  3DCD               	addwfc	dtoa@i+1,f
  3671  0E22                     l2256:
  3672                           
  3673                           ;C:\Program Files\Microchip\xc8\v2.32\pic\sources\c99\common\doprnt.c: 323:         dbuf
      +                          [i] = s ? '-' : '+';
  3674  0E22  0842               	movf	dtoa@s,w
  3675  0E23  0443               	iorwf	dtoa@s+1,w
  3676  0E24  1D03               	btfss	3,2
  3677  0E25  2E27               	goto	u3071
  3678  0E26  2E28               	goto	u3070
  3679  0E27                     u3071:
  3680  0E27  2E2D               	goto	l2260
  3681  0E28                     u3070:
  3682  0E28                     l2258:
  3683  0E28  302B               	movlw	43
  3684  0E29  00BB               	movwf	_dtoa$1139
  3685  0E2A  3000               	movlw	0
  3686  0E2B  00BC               	movwf	_dtoa$1139+1
  3687  0E2C  2E31               	goto	l2262
  3688  0E2D                     l2260:
  3689  0E2D  302D               	movlw	45
  3690  0E2E  00BB               	movwf	_dtoa$1139
  3691  0E2F  3000               	movlw	0
  3692  0E30  00BC               	movwf	_dtoa$1139+1
  3693  0E31                     l2262:
  3694  0E31  083B               	movf	_dtoa$1139,w
  3695  0E32  00B8               	movwf	??_dtoa
  3696  0E33  084C               	movf	dtoa@i,w
  3697  0E34  3EAF               	addlw	(low (_dbuf| 0))& (0+255)
  3698  0E35  0086               	movwf	6
  3699  0E36  0187               	clrf	7
  3700  0E37  0838               	movf	??_dtoa,w
  3701  0E38  0081               	movwf	1
  3702  0E39                     l2264:
  3703                           
  3704                           ;C:\Program Files\Microchip\xc8\v2.32\pic\sources\c99\common\doprnt.c: 327:     return p
      +                          ad(fp, &dbuf[i], w);
  3705  0E39  084C               	movf	dtoa@i,w
  3706  0E3A  3EAF               	addlw	(low (_dbuf| 0))& (0+255)
  3707  0E3B  00B8               	movwf	??_dtoa
  3708  0E3C  0838               	movf	??_dtoa,w
  3709  0E3D  00A7               	movwf	pad@buf
  3710  0E3E  0841               	movf	dtoa@w+1,w
  3711  0E3F  00A9               	movwf	pad@p+1
  3712  0E40  0840               	movf	dtoa@w,w
  3713  0E41  00A8               	movwf	pad@p
  3714  0E42  083F               	movf	dtoa@fp,w
  3715  0E43  3196  26D9  318C   	fcall	_pad
  3716  0E46  0140               	movlb	0	; select bank0
  3717  0E47  0828               	movf	?_pad+1,w
  3718  0E48  00B1               	movwf	?_dtoa+1
  3719  0E49  0827               	movf	?_pad,w
  3720  0E4A  00B0               	movwf	?_dtoa
  3721  0E4B                     l776:
  3722  0E4B  0008               	return
  3723  0E4C                     __end_of_dtoa:
  3724                           
  3725                           	psect	text9
  3726  16D9                     __ptext9:	
  3727 ;; *************** function _pad *****************
  3728 ;; Defined at:
  3729 ;;		line 72 in file "C:\Program Files\Microchip\xc8\v2.32\pic\sources\c99\common\doprnt.c"
  3730 ;; Parameters:    Size  Location     Type
  3731 ;;  fp              1    wreg     PTR struct _IO_FILE
  3732 ;;		 -> NULL(0), 
  3733 ;;  buf             1    7[BANK0 ] PTR unsigned char 
  3734 ;;		 -> dbuf(32), 
  3735 ;;  p               2    8[BANK0 ] int 
  3736 ;; Auto vars:     Size  Location     Type
  3737 ;;  fp              1   14[BANK0 ] PTR struct _IO_FILE
  3738 ;;		 -> NULL(0), 
  3739 ;;  w               2   12[BANK0 ] int 
  3740 ;;  i               2   10[BANK0 ] int 
  3741 ;; Return value:  Size  Location     Type
  3742 ;;                  2    7[BANK0 ] int 
  3743 ;; Registers used:
  3744 ;;		wreg, fsr1l, fsr1h, status,2, status,0, pclath, cstack
  3745 ;; Tracked objects:
  3746 ;;		On entry : 0/0
  3747 ;;		On exit  : 0/0
  3748 ;;		Unchanged: 0/0
  3749 ;; Data sizes:     COMMON   BANK0   BANK1   BANK2   BANK3   BANK4   BANK5   BANK6   BANK7   BANK8   BANK9  BANK10  BANK1
      +1  BANK12  BANK13  BANK14  BANK15  BANK16  BANK17  BANK18  BANK19  BANK20  BANK21  BANK22  BANK23  BANK24  BANK25
  3750 ;;      Params:         0       3       0       0       0       0       0       0       0       0       0       0       
      +0       0       0       0       0       0       0       0       0       0       0       0       0       0       0
  3751 ;;      Locals:         0       5       0       0       0       0       0       0       0       0       0       0       
      +0       0       0       0       0       0       0       0       0       0       0       0       0       0       0
  3752 ;;      Temps:          1       0       0       0       0       0       0       0       0       0       0       0       
      +0       0       0       0       0       0       0       0       0       0       0       0       0       0       0
  3753 ;;      Totals:         1       8       0       0       0       0       0       0       0       0       0       0       
      +0       0       0       0       0       0       0       0       0       0       0       0       0       0       0
  3754 ;;Total ram usage:        9 bytes
  3755 ;; Hardware stack levels used: 1
  3756 ;; Hardware stack levels required when called: 4
  3757 ;; This function calls:
  3758 ;;		_fputc
  3759 ;;		_fputs
  3760 ;;		_strlen
  3761 ;; This function is called by:
  3762 ;;		_dtoa
  3763 ;; This function uses a non-reentrant model
  3764 ;;
  3765                           
  3766                           
  3767                           ;psect for function _pad
  3768  16D9                     _pad:
  3769                           
  3770                           ;incstack = 0
  3771                           ; Regs used in _pad: [wreg+fsr1l+fsr1h+status,2+status,0+pclath+cstack]
  3772                           ;pad@fp stored from wreg
  3773  16D9  0140               	movlb	0	; select bank0
  3774  16DA  00AE               	movwf	pad@fp
  3775  16DB                     l1978:
  3776                           
  3777                           ;C:\Program Files\Microchip\xc8\v2.32\pic\sources\c99\common\doprnt.c: 72: static int pa
      +                          d(FILE *fp, char *buf, int p);C:\Program Files\Microchip\xc8\v2.32\pic\sources\c99\commo
      +                          n\doprnt.c: 73: {;C:\Program Files\Microchip\xc8\v2.32\pic\sources\c99\common\doprnt.c: 
      +                          74:     int i, w;;C:\Program Files\Microchip\xc8\v2.32\pic\sources\c99\common\doprnt.c: 
      +                          77:     if (flags & (1 << 0)) {
  3778  16DB  1C6D               	btfss	_flags,0
  3779  16DC  2EDE               	goto	u2411
  3780  16DD  2EDF               	goto	u2410
  3781  16DE                     u2411:
  3782  16DE  2EE7               	goto	l1982
  3783  16DF                     u2410:
  3784  16DF                     l1980:
  3785                           
  3786                           ;C:\Program Files\Microchip\xc8\v2.32\pic\sources\c99\common\doprnt.c: 78:         fputs
      +                          ((const char *)buf, fp);
  3787  16DF  082E               	movf	pad@fp,w
  3788  16E0  00FB               	movwf	??_pad
  3789  16E1  087B               	movf	??_pad,w
  3790  16E2  00FA               	movwf	fputs@fp
  3791  16E3  0827               	movf	pad@buf,w
  3792  16E4  3196  263F  3196   	fcall	_fputs
  3793  16E7                     l1982:
  3794                           
  3795                           ;C:\Program Files\Microchip\xc8\v2.32\pic\sources\c99\common\doprnt.c: 82:     w = (p < 
      +                          0) ? 0 : p;
  3796  16E7  0140               	movlb	0	; select bank0
  3797  16E8  1BA9               	btfsc	pad@p+1,7
  3798  16E9  2EEB               	goto	u2421
  3799  16EA  2EEC               	goto	u2420
  3800  16EB                     u2421:
  3801  16EB  2EF1               	goto	l1986
  3802  16EC                     u2420:
  3803  16EC                     l1984:
  3804  16EC  0829               	movf	pad@p+1,w
  3805  16ED  00AD               	movwf	pad@w+1
  3806  16EE  0828               	movf	pad@p,w
  3807  16EF  00AC               	movwf	pad@w
  3808  16F0  2EF3               	goto	l745
  3809  16F1                     l1986:
  3810  16F1  01AC               	clrf	pad@w
  3811  16F2  01AD               	clrf	pad@w+1
  3812  16F3                     l745:
  3813                           
  3814                           ;C:\Program Files\Microchip\xc8\v2.32\pic\sources\c99\common\doprnt.c: 83:     i = 0;
  3815  16F3  01AA               	clrf	pad@i
  3816  16F4  01AB               	clrf	pad@i+1
  3817                           
  3818                           ;C:\Program Files\Microchip\xc8\v2.32\pic\sources\c99\common\doprnt.c: 84:     while (i 
      +                          < w) {
  3819  16F5  2F07               	goto	l1992
  3820  16F6                     l1988:
  3821                           
  3822                           ;C:\Program Files\Microchip\xc8\v2.32\pic\sources\c99\common\doprnt.c: 85:         fputc
      +                          (' ', fp);
  3823  16F6  3020               	movlw	32
  3824  16F7  00F2               	movwf	fputc@c
  3825  16F8  3000               	movlw	0
  3826  16F9  00F3               	movwf	fputc@c+1
  3827  16FA  0140               	movlb	0	; select bank0
  3828  16FB  082E               	movf	pad@fp,w
  3829  16FC  00FB               	movwf	??_pad
  3830  16FD  087B               	movf	??_pad,w
  3831  16FE  00F4               	movwf	fputc@fp
  3832  16FF  3196  269A  3196   	fcall	_fputc
  3833  1702                     l1990:
  3834                           
  3835                           ;C:\Program Files\Microchip\xc8\v2.32\pic\sources\c99\common\doprnt.c: 86:         ++i;
  3836  1702  3001               	movlw	1
  3837  1703  0140               	movlb	0	; select bank0
  3838  1704  07AA               	addwf	pad@i,f
  3839  1705  3000               	movlw	0
  3840  1706  3DAB               	addwfc	pad@i+1,f
  3841  1707                     l1992:
  3842                           
  3843                           ;C:\Program Files\Microchip\xc8\v2.32\pic\sources\c99\common\doprnt.c: 84:     while (i 
      +                          < w) {
  3844  1707  082B               	movf	pad@i+1,w
  3845  1708  3A80               	xorlw	128
  3846  1709  00FB               	movwf	??_pad
  3847  170A  082D               	movf	pad@w+1,w
  3848  170B  3A80               	xorlw	128
  3849  170C  027B               	subwf	??_pad,w
  3850  170D  1D03               	skipz
  3851  170E  2F11               	goto	u2435
  3852  170F  082C               	movf	pad@w,w
  3853  1710  022A               	subwf	pad@i,w
  3854  1711                     u2435:
  3855  1711  1C03               	skipc
  3856  1712  2F14               	goto	u2431
  3857  1713  2F15               	goto	u2430
  3858  1714                     u2431:
  3859  1714  2EF6               	goto	l1988
  3860  1715                     u2430:
  3861  1715                     l748:
  3862                           
  3863                           ;C:\Program Files\Microchip\xc8\v2.32\pic\sources\c99\common\doprnt.c: 90:     if (!(fla
      +                          gs & (1 << 0))) {
  3864  1715  0140               	movlb	0	; select bank0
  3865  1716  186D               	btfsc	_flags,0
  3866  1717  2F19               	goto	u2441
  3867  1718  2F1A               	goto	u2440
  3868  1719                     u2441:
  3869  1719  2F22               	goto	l749
  3870  171A                     u2440:
  3871  171A                     l1994:
  3872                           
  3873                           ;C:\Program Files\Microchip\xc8\v2.32\pic\sources\c99\common\doprnt.c: 91:         fputs
      +                          ((const char *)buf, fp);
  3874  171A  082E               	movf	pad@fp,w
  3875  171B  00FB               	movwf	??_pad
  3876  171C  087B               	movf	??_pad,w
  3877  171D  00FA               	movwf	fputs@fp
  3878  171E  0827               	movf	pad@buf,w
  3879  171F  3196  263F  3196   	fcall	_fputs
  3880  1722                     l749:	
  3881                           ;C:\Program Files\Microchip\xc8\v2.32\pic\sources\c99\common\doprnt.c: 92:     }
  3882                           
  3883                           
  3884                           ;C:\Program Files\Microchip\xc8\v2.32\pic\sources\c99\common\doprnt.c: 94:     return (i
      +                          nt)(strlen(buf) + (size_t)w);
  3885  1722  0140               	movlb	0	; select bank0
  3886  1723  0827               	movf	pad@buf,w
  3887  1724  3195  25A7  3196   	fcall	_strlen
  3888  1727  0140               	movlb	0	; select bank0
  3889  1728  082C               	movf	pad@w,w
  3890  1729  0771               	addwf	?_strlen,w
  3891  172A  00A7               	movwf	?_pad
  3892  172B  082D               	movf	pad@w+1,w
  3893  172C  3D72               	addwfc	?_strlen+1,w
  3894  172D  00A8               	movwf	?_pad+1
  3895  172E                     l750:
  3896  172E  0008               	return
  3897  172F                     __end_of_pad:
  3898                           
  3899                           	psect	text10
  3900  15A7                     __ptext10:	
  3901 ;; *************** function _strlen *****************
  3902 ;; Defined at:
  3903 ;;		line 5 in file "C:\Program Files\Microchip\xc8\v2.32\pic\sources\c99\common\strlen.c"
  3904 ;; Parameters:    Size  Location     Type
  3905 ;;  s               1    wreg     PTR const unsigned char 
  3906 ;;		 -> dbuf(32), 
  3907 ;; Auto vars:     Size  Location     Type
  3908 ;;  s               1    5[COMMON] PTR const unsigned char 
  3909 ;;		 -> dbuf(32), 
  3910 ;;  a               1    4[COMMON] PTR const unsigned char 
  3911 ;;		 -> dbuf(32), 
  3912 ;; Return value:  Size  Location     Type
  3913 ;;                  2    1[COMMON] unsigned int 
  3914 ;; Registers used:
  3915 ;;		wreg, fsr1l, fsr1h, status,2, status,0
  3916 ;; Tracked objects:
  3917 ;;		On entry : 0/0
  3918 ;;		On exit  : 0/0
  3919 ;;		Unchanged: 0/0
  3920 ;; Data sizes:     COMMON   BANK0   BANK1   BANK2   BANK3   BANK4   BANK5   BANK6   BANK7   BANK8   BANK9  BANK10  BANK1
      +1  BANK12  BANK13  BANK14  BANK15  BANK16  BANK17  BANK18  BANK19  BANK20  BANK21  BANK22  BANK23  BANK24  BANK25
  3921 ;;      Params:         2       0       0       0       0       0       0       0       0       0       0       0       
      +0       0       0       0       0       0       0       0       0       0       0       0       0       0       0
  3922 ;;      Locals:         2       0       0       0       0       0       0       0       0       0       0       0       
      +0       0       0       0       0       0       0       0       0       0       0       0       0       0       0
  3923 ;;      Temps:          1       0       0       0       0       0       0       0       0       0       0       0       
      +0       0       0       0       0       0       0       0       0       0       0       0       0       0       0
  3924 ;;      Totals:         5       0       0       0       0       0       0       0       0       0       0       0       
      +0       0       0       0       0       0       0       0       0       0       0       0       0       0       0
  3925 ;;Total ram usage:        5 bytes
  3926 ;; Hardware stack levels used: 1
  3927 ;; Hardware stack levels required when called: 1
  3928 ;; This function calls:
  3929 ;;		Nothing
  3930 ;; This function is called by:
  3931 ;;		_pad
  3932 ;; This function uses a non-reentrant model
  3933 ;;
  3934                           
  3935                           
  3936                           ;psect for function _strlen
  3937  15A7                     _strlen:
  3938                           
  3939                           ;incstack = 0
  3940                           ; Regs used in _strlen: [wreg+fsr1l+fsr1h+status,2+status,0]
  3941                           ;strlen@s stored from wreg
  3942  15A7  00F5               	movwf	strlen@s
  3943  15A8                     l1900:
  3944  15A8  0875               	movf	strlen@s,w
  3945  15A9  00F3               	movwf	??_strlen
  3946  15AA  0873               	movf	??_strlen,w
  3947  15AB  00F4               	movwf	strlen@a
  3948  15AC  2DB1               	goto	l1904
  3949  15AD                     l1902:
  3950  15AD  3001               	movlw	1
  3951  15AE  00F3               	movwf	??_strlen
  3952  15AF  0873               	movf	??_strlen,w
  3953  15B0  07F5               	addwf	strlen@s,f
  3954  15B1                     l1904:
  3955  15B1  0875               	movf	strlen@s,w
  3956  15B2  0086               	movwf	6
  3957  15B3  0187               	clrf	7
  3958  15B4  0801               	movf	1,w
  3959  15B5  1D03               	btfss	3,2
  3960  15B6  2DB8               	goto	u2191
  3961  15B7  2DB9               	goto	u2190
  3962  15B8                     u2191:
  3963  15B8  2DAD               	goto	l1902
  3964  15B9                     u2190:
  3965  15B9                     l1906:
  3966  15B9  0874               	movf	strlen@a,w
  3967  15BA  0275               	subwf	strlen@s,w
  3968  15BB  00F1               	movwf	?_strlen
  3969  15BC  01F2               	clrf	?_strlen+1
  3970  15BD  1BF1               	btfsc	?_strlen,7
  3971  15BE  03F2               	decf	?_strlen+1,f
  3972  15BF                     l841:
  3973  15BF  0008               	return
  3974  15C0                     __end_of_strlen:
  3975                           
  3976                           	psect	text11
  3977  163F                     __ptext11:	
  3978 ;; *************** function _fputs *****************
  3979 ;; Defined at:
  3980 ;;		line 8 in file "C:\Program Files\Microchip\xc8\v2.32\pic\sources\c99\common\nf_fputs.c"
  3981 ;; Parameters:    Size  Location     Type
  3982 ;;  s               1    wreg     PTR const unsigned char 
  3983 ;;		 -> dbuf(32), 
  3984 ;;  fp              1   10[COMMON] PTR struct _IO_FILE
  3985 ;;		 -> NULL(0), 
  3986 ;; Auto vars:     Size  Location     Type
  3987 ;;  s               1    6[BANK0 ] PTR const unsigned char 
  3988 ;;		 -> dbuf(32), 
  3989 ;;  i               2    4[BANK0 ] int 
  3990 ;;  c               1    3[BANK0 ] unsigned char 
  3991 ;; Return value:  Size  Location     Type
  3992 ;;                  2   10[COMMON] int 
  3993 ;; Registers used:
  3994 ;;		wreg, fsr1l, fsr1h, status,2, status,0, pclath, cstack
  3995 ;; Tracked objects:
  3996 ;;		On entry : 0/0
  3997 ;;		On exit  : 0/0
  3998 ;;		Unchanged: 0/0
  3999 ;; Data sizes:     COMMON   BANK0   BANK1   BANK2   BANK3   BANK4   BANK5   BANK6   BANK7   BANK8   BANK9  BANK10  BANK1
      +1  BANK12  BANK13  BANK14  BANK15  BANK16  BANK17  BANK18  BANK19  BANK20  BANK21  BANK22  BANK23  BANK24  BANK25
  4000 ;;      Params:         1       0       0       0       0       0       0       0       0       0       0       0       
      +0       0       0       0       0       0       0       0       0       0       0       0       0       0       0
  4001 ;;      Locals:         0       4       0       0       0       0       0       0       0       0       0       0       
      +0       0       0       0       0       0       0       0       0       0       0       0       0       0       0
  4002 ;;      Temps:          0       3       0       0       0       0       0       0       0       0       0       0       
      +0       0       0       0       0       0       0       0       0       0       0       0       0       0       0
  4003 ;;      Totals:         1       7       0       0       0       0       0       0       0       0       0       0       
      +0       0       0       0       0       0       0       0       0       0       0       0       0       0       0
  4004 ;;Total ram usage:        8 bytes
  4005 ;; Hardware stack levels used: 1
  4006 ;; Hardware stack levels required when called: 3
  4007 ;; This function calls:
  4008 ;;		_fputc
  4009 ;; This function is called by:
  4010 ;;		_pad
  4011 ;; This function uses a non-reentrant model
  4012 ;;
  4013                           
  4014                           
  4015                           ;psect for function _fputs
  4016  163F                     _fputs:
  4017                           
  4018                           ;incstack = 0
  4019                           ; Regs used in _fputs: [wreg+fsr1l+fsr1h+status,2+status,0+pclath+cstack]
  4020                           ;fputs@s stored from wreg
  4021  163F  0140               	movlb	0	; select bank0
  4022  1640  00A6               	movwf	fputs@s
  4023  1641                     l1892:
  4024  1641  01A4               	clrf	fputs@i
  4025  1642  01A5               	clrf	fputs@i+1
  4026  1643  2E57               	goto	l1898
  4027  1644                     l1894:
  4028  1644  0823               	movf	fputs@c,w
  4029  1645  00A0               	movwf	??_fputs
  4030  1646  01A1               	clrf	??_fputs+1
  4031  1647  0820               	movf	??_fputs,w
  4032  1648  00F2               	movwf	fputc@c
  4033  1649  0821               	movf	??_fputs+1,w
  4034  164A  00F3               	movwf	fputc@c+1
  4035  164B  087A               	movf	fputs@fp,w
  4036  164C  00A2               	movwf	??_fputs+2
  4037  164D  0822               	movf	??_fputs+2,w
  4038  164E  00F4               	movwf	fputc@fp
  4039  164F  3196  269A  3196   	fcall	_fputc
  4040  1652                     l1896:
  4041  1652  3001               	movlw	1
  4042  1653  0140               	movlb	0	; select bank0
  4043  1654  07A4               	addwf	fputs@i,f
  4044  1655  3000               	movlw	0
  4045  1656  3DA5               	addwfc	fputs@i+1,f
  4046  1657                     l1898:
  4047  1657  0824               	movf	fputs@i,w
  4048  1658  0726               	addwf	fputs@s,w
  4049  1659  00A0               	movwf	??_fputs
  4050  165A  0820               	movf	??_fputs,w
  4051  165B  0086               	movwf	6
  4052  165C  0187               	clrf	7
  4053  165D  0801               	movf	1,w
  4054  165E  00A1               	movwf	??_fputs+1
  4055  165F  0821               	movf	??_fputs+1,w
  4056  1660  00A3               	movwf	fputs@c
  4057  1661  0823               	movf	fputs@c,w
  4058  1662  1D03               	btfss	3,2
  4059  1663  2E65               	goto	u2181
  4060  1664  2E66               	goto	u2180
  4061  1665                     u2181:
  4062  1665  2E44               	goto	l1894
  4063  1666                     u2180:
  4064  1666                     l820:
  4065  1666  0008               	return
  4066  1667                     __end_of_fputs:
  4067                           
  4068                           	psect	text12
  4069  169A                     __ptext12:	
  4070 ;; *************** function _fputc *****************
  4071 ;; Defined at:
  4072 ;;		line 8 in file "C:\Program Files\Microchip\xc8\v2.32\pic\sources\c99\common\nf_fputc.c"
  4073 ;; Parameters:    Size  Location     Type
  4074 ;;  c               2    2[COMMON] int 
  4075 ;;  fp              1    4[COMMON] PTR struct _IO_FILE
  4076 ;;		 -> NULL(0), 
  4077 ;; Auto vars:     Size  Location     Type
  4078 ;;		None
  4079 ;; Return value:  Size  Location     Type
  4080 ;;                  2    2[COMMON] int 
  4081 ;; Registers used:
  4082 ;;		wreg, fsr1l, fsr1h, status,2, status,0, pclath, cstack
  4083 ;; Tracked objects:
  4084 ;;		On entry : 0/0
  4085 ;;		On exit  : 0/0
  4086 ;;		Unchanged: 0/0
  4087 ;; Data sizes:     COMMON   BANK0   BANK1   BANK2   BANK3   BANK4   BANK5   BANK6   BANK7   BANK8   BANK9  BANK10  BANK1
      +1  BANK12  BANK13  BANK14  BANK15  BANK16  BANK17  BANK18  BANK19  BANK20  BANK21  BANK22  BANK23  BANK24  BANK25
  4088 ;;      Params:         3       0       0       0       0       0       0       0       0       0       0       0       
      +0       0       0       0       0       0       0       0       0       0       0       0       0       0       0
  4089 ;;      Locals:         0       0       0       0       0       0       0       0       0       0       0       0       
      +0       0       0       0       0       0       0       0       0       0       0       0       0       0       0
  4090 ;;      Temps:          5       0       0       0       0       0       0       0       0       0       0       0       
      +0       0       0       0       0       0       0       0       0       0       0       0       0       0       0
  4091 ;;      Totals:         8       0       0       0       0       0       0       0       0       0       0       0       
      +0       0       0       0       0       0       0       0       0       0       0       0       0       0       0
  4092 ;;Total ram usage:        8 bytes
  4093 ;; Hardware stack levels used: 1
  4094 ;; Hardware stack levels required when called: 2
  4095 ;; This function calls:
  4096 ;;		_putch
  4097 ;; This function is called by:
  4098 ;;		_pad
  4099 ;;		_vfpfcnvrt
  4100 ;;		_fputs
  4101 ;; This function uses a non-reentrant model
  4102 ;;
  4103                           
  4104                           
  4105                           ;psect for function _fputc
  4106  169A                     _fputc:
  4107  169A                     l1878:	
  4108                           ;incstack = 0
  4109                           ; Regs used in _fputc: [wreg+fsr1l+fsr1h+status,2+status,0+pclath+cstack]
  4110                           
  4111  169A  0874               	movf	fputc@fp,w
  4112  169B  1903               	btfsc	3,2
  4113  169C  2E9E               	goto	u2141
  4114  169D  2E9F               	goto	u2140
  4115  169E                     u2141:
  4116  169E  2EA4               	goto	l1882
  4117  169F                     u2140:
  4118  169F                     l1880:
  4119  169F  0874               	movf	fputc@fp,w
  4120  16A0  1D03               	btfss	3,2
  4121  16A1  2EA3               	goto	u2151
  4122  16A2  2EA4               	goto	u2150
  4123  16A3                     u2151:
  4124  16A3  2EA9               	goto	l1884
  4125  16A4                     u2150:
  4126  16A4                     l1882:
  4127  16A4  0872               	movf	fputc@c,w
  4128  16A5  3195  2569  3196   	fcall	_putch
  4129  16A8  2ED8               	goto	l812
  4130  16A9                     l1884:
  4131  16A9  0874               	movf	fputc@fp,w
  4132  16AA  3E03               	addlw	3
  4133  16AB  0086               	movwf	6
  4134  16AC  0187               	clrf	7
  4135  16AD  0016               	moviw fsr1++
  4136  16AE  0401               	iorwf	1,w
  4137  16AF  1903               	btfsc	3,2
  4138  16B0  2EB2               	goto	u2161
  4139  16B1  2EB3               	goto	u2160
  4140  16B2                     u2161:
  4141  16B2  2ED0               	goto	l1888
  4142  16B3                     u2160:
  4143  16B3                     l1886:
  4144  16B3  0874               	movf	fputc@fp,w
  4145  16B4  3E03               	addlw	3
  4146  16B5  0086               	movwf	6
  4147  16B6  0187               	clrf	7
  4148  16B7  3F40               	moviw [0]fsr1
  4149  16B8  00F5               	movwf	??_fputc
  4150  16B9  3F41               	moviw [1]fsr1
  4151  16BA  00F6               	movwf	??_fputc+1
  4152  16BB  0A74               	incf	fputc@fp,w
  4153  16BC  0086               	movwf	6
  4154  16BD  0187               	clrf	7
  4155  16BE  3F40               	moviw [0]fsr1
  4156  16BF  00F7               	movwf	??_fputc+2
  4157  16C0  3F41               	moviw [1]fsr1
  4158  16C1  00F8               	movwf	??_fputc+3
  4159  16C2  0878               	movf	??_fputc+3,w
  4160  16C3  3A80               	xorlw	128
  4161  16C4  00F9               	movwf	??_fputc+4
  4162  16C5  0876               	movf	??_fputc+1,w
  4163  16C6  3A80               	xorlw	128
  4164  16C7  0279               	subwf	??_fputc+4,w
  4165  16C8  1D03               	skipz
  4166  16C9  2ECC               	goto	u2175
  4167  16CA  0875               	movf	??_fputc,w
  4168  16CB  0277               	subwf	??_fputc+2,w
  4169  16CC                     u2175:
  4170  16CC  1803               	skipnc
  4171  16CD  2ECF               	goto	u2171
  4172  16CE  2ED0               	goto	u2170
  4173  16CF                     u2171:
  4174  16CF  2ED8               	goto	l812
  4175  16D0                     u2170:
  4176  16D0                     l1888:
  4177  16D0  0A74               	incf	fputc@fp,w
  4178  16D1  0086               	movwf	6
  4179  16D2  0187               	clrf	7
  4180  16D3  3001               	movlw	1
  4181  16D4  0781               	addwf	1,f
  4182  16D5  3141               	addfsr 1,1
  4183  16D6  1803               	skipnc
  4184  16D7  0A81               	incf	1,f
  4185  16D8                     l812:
  4186  16D8  0008               	return
  4187  16D9                     __end_of_fputc:
  4188                           
  4189                           	psect	text13
  4190  1569                     __ptext13:	
  4191 ;; *************** function _putch *****************
  4192 ;; Defined at:
  4193 ;;		line 143 in file "newmain.c"
  4194 ;; Parameters:    Size  Location     Type
  4195 ;;  c               1    wreg     unsigned char 
  4196 ;; Auto vars:     Size  Location     Type
  4197 ;;  c               1    1[COMMON] unsigned char 
  4198 ;; Return value:  Size  Location     Type
  4199 ;;                  1    wreg      void 
  4200 ;; Registers used:
  4201 ;;		wreg
  4202 ;; Tracked objects:
  4203 ;;		On entry : 0/0
  4204 ;;		On exit  : 0/0
  4205 ;;		Unchanged: 0/0
  4206 ;; Data sizes:     COMMON   BANK0   BANK1   BANK2   BANK3   BANK4   BANK5   BANK6   BANK7   BANK8   BANK9  BANK10  BANK1
      +1  BANK12  BANK13  BANK14  BANK15  BANK16  BANK17  BANK18  BANK19  BANK20  BANK21  BANK22  BANK23  BANK24  BANK25
  4207 ;;      Params:         0       0       0       0       0       0       0       0       0       0       0       0       
      +0       0       0       0       0       0       0       0       0       0       0       0       0       0       0
  4208 ;;      Locals:         1       0       0       0       0       0       0       0       0       0       0       0       
      +0       0       0       0       0       0       0       0       0       0       0       0       0       0       0
  4209 ;;      Temps:          0       0       0       0       0       0       0       0       0       0       0       0       
      +0       0       0       0       0       0       0       0       0       0       0       0       0       0       0
  4210 ;;      Totals:         1       0       0       0       0       0       0       0       0       0       0       0       
      +0       0       0       0       0       0       0       0       0       0       0       0       0       0       0
  4211 ;;Total ram usage:        1 bytes
  4212 ;; Hardware stack levels used: 1
  4213 ;; Hardware stack levels required when called: 1
  4214 ;; This function calls:
  4215 ;;		Nothing
  4216 ;; This function is called by:
  4217 ;;		_fputc
  4218 ;; This function uses a non-reentrant model
  4219 ;;
  4220                           
  4221                           
  4222                           ;psect for function _putch
  4223  1569                     _putch:
  4224                           
  4225                           ;incstack = 0
  4226                           ; Regs used in _putch: [wreg]
  4227                           ;putch@c stored from wreg
  4228  1569  00F1               	movwf	putch@c
  4229  156A                     l1876:
  4230                           
  4231                           ;newmain.c: 143: void putch(char c);newmain.c: 144: {;newmain.c: 145:     TX1REG = c;
  4232  156A  0871               	movf	putch@c,w
  4233  156B  0142               	movlb	2	; select bank2
  4234  156C  009A               	movwf	26	;volatile
  4235  156D                     l93:	
  4236                           ;newmain.c: 146:     while (TX1STAbits.TRMT != 1);
  4237                           
  4238  156D  1C9E               	btfss	30,1	;volatile
  4239  156E  2D70               	goto	u2131
  4240  156F  2D71               	goto	u2130
  4241  1570                     u2131:
  4242  1570  2D6D               	goto	l93
  4243  1571                     u2130:
  4244  1571                     l96:
  4245  1571  0008               	return
  4246  1572                     __end_of_putch:
  4247                           
  4248                           	psect	text14
  4249  15C0                     __ptext14:	
  4250 ;; *************** function _abs *****************
  4251 ;; Defined at:
  4252 ;;		line 1 in file "C:\Program Files\Microchip\xc8\v2.32\pic\sources\c99\common\abs.c"
  4253 ;; Parameters:    Size  Location     Type
  4254 ;;  a               2    4[COMMON] int 
  4255 ;; Auto vars:     Size  Location     Type
  4256 ;;		None
  4257 ;; Return value:  Size  Location     Type
  4258 ;;                  2    4[COMMON] int 
  4259 ;; Registers used:
  4260 ;;		wreg, status,2, status,0
  4261 ;; Tracked objects:
  4262 ;;		On entry : 0/0
  4263 ;;		On exit  : 0/0
  4264 ;;		Unchanged: 0/0
  4265 ;; Data sizes:     COMMON   BANK0   BANK1   BANK2   BANK3   BANK4   BANK5   BANK6   BANK7   BANK8   BANK9  BANK10  BANK1
      +1  BANK12  BANK13  BANK14  BANK15  BANK16  BANK17  BANK18  BANK19  BANK20  BANK21  BANK22  BANK23  BANK24  BANK25
  4266 ;;      Params:         2       0       0       0       0       0       0       0       0       0       0       0       
      +0       0       0       0       0       0       0       0       0       0       0       0       0       0       0
  4267 ;;      Locals:         0       0       0       0       0       0       0       0       0       0       0       0       
      +0       0       0       0       0       0       0       0       0       0       0       0       0       0       0
  4268 ;;      Temps:          2       0       0       0       0       0       0       0       0       0       0       0       
      +0       0       0       0       0       0       0       0       0       0       0       0       0       0       0
  4269 ;;      Totals:         4       0       0       0       0       0       0       0       0       0       0       0       
      +0       0       0       0       0       0       0       0       0       0       0       0       0       0       0
  4270 ;;Total ram usage:        4 bytes
  4271 ;; Hardware stack levels used: 1
  4272 ;; Hardware stack levels required when called: 1
  4273 ;; This function calls:
  4274 ;;		Nothing
  4275 ;; This function is called by:
  4276 ;;		_dtoa
  4277 ;; This function uses a non-reentrant model
  4278 ;;
  4279                           
  4280                           
  4281                           ;psect for function _abs
  4282  15C0                     _abs:
  4283  15C0                     l1998:	
  4284                           ;incstack = 0
  4285                           ; Regs used in _abs: [wreg+status,2+status,0]
  4286                           
  4287  15C0  0875               	movf	abs@a+1,w
  4288  15C1  3A80               	xorlw	128
  4289  15C2  00F6               	movwf	??_abs
  4290  15C3  3080               	movlw	128
  4291  15C4  0276               	subwf	??_abs,w
  4292  15C5  1D03               	skipz
  4293  15C6  2DC9               	goto	u2455
  4294  15C7  3001               	movlw	1
  4295  15C8  0274               	subwf	abs@a,w
  4296  15C9                     u2455:
  4297  15C9  1803               	skipnc
  4298  15CA  2DCC               	goto	u2451
  4299  15CB  2DCD               	goto	u2450
  4300  15CC                     u2451:
  4301  15CC  2DD9               	goto	l797
  4302  15CD                     u2450:
  4303  15CD                     l2000:
  4304  15CD  0974               	comf	abs@a,w
  4305  15CE  00F6               	movwf	??_abs
  4306  15CF  0975               	comf	abs@a+1,w
  4307  15D0  00F7               	movwf	??_abs+1
  4308  15D1  0AF6               	incf	??_abs,f
  4309  15D2  1903               	skipnz
  4310  15D3  0AF7               	incf	??_abs+1,f
  4311  15D4  0876               	movf	??_abs,w
  4312  15D5  00F4               	movwf	?_abs
  4313  15D6  0877               	movf	??_abs+1,w
  4314  15D7  00F5               	movwf	?_abs+1
  4315  15D8  2DD9               	goto	l800
  4316  15D9                     l797:
  4317  15D9                     l800:
  4318  15D9  0008               	return
  4319  15DA                     __end_of_abs:
  4320                           
  4321                           	psect	text15
  4322  0AF7                     __ptext15:	
  4323 ;; *************** function ___aomod *****************
  4324 ;; Defined at:
  4325 ;;		line 7 in file "C:\Program Files\Microchip\xc8\v2.32\pic\sources\c99\common\aomod.c"
  4326 ;; Parameters:    Size  Location     Type
  4327 ;;  divisor         8    0[BANK0 ] long long 
  4328 ;;  dividend        8    8[BANK0 ] long long 
  4329 ;; Auto vars:     Size  Location     Type
  4330 ;;  sign            1    3[COMMON] unsigned char 
  4331 ;;  counter         1    2[COMMON] unsigned char 
  4332 ;; Return value:  Size  Location     Type
  4333 ;;                  8    0[BANK0 ] long long 
  4334 ;; Registers used:
  4335 ;;		wreg, fsr1l, fsr1h, status,2, status,0
  4336 ;; Tracked objects:
  4337 ;;		On entry : 0/0
  4338 ;;		On exit  : 0/0
  4339 ;;		Unchanged: 0/0
  4340 ;; Data sizes:     COMMON   BANK0   BANK1   BANK2   BANK3   BANK4   BANK5   BANK6   BANK7   BANK8   BANK9  BANK10  BANK1
      +1  BANK12  BANK13  BANK14  BANK15  BANK16  BANK17  BANK18  BANK19  BANK20  BANK21  BANK22  BANK23  BANK24  BANK25
  4341 ;;      Params:         0      16       0       0       0       0       0       0       0       0       0       0       
      +0       0       0       0       0       0       0       0       0       0       0       0       0       0       0
  4342 ;;      Locals:         2       0       0       0       0       0       0       0       0       0       0       0       
      +0       0       0       0       0       0       0       0       0       0       0       0       0       0       0
  4343 ;;      Temps:          1       0       0       0       0       0       0       0       0       0       0       0       
      +0       0       0       0       0       0       0       0       0       0       0       0       0       0       0
  4344 ;;      Totals:         3      16       0       0       0       0       0       0       0       0       0       0       
      +0       0       0       0       0       0       0       0       0       0       0       0       0       0       0
  4345 ;;Total ram usage:       19 bytes
  4346 ;; Hardware stack levels used: 1
  4347 ;; Hardware stack levels required when called: 1
  4348 ;; This function calls:
  4349 ;;		Nothing
  4350 ;; This function is called by:
  4351 ;;		_dtoa
  4352 ;; This function uses a non-reentrant model
  4353 ;;
  4354                           
  4355                           
  4356                           ;psect for function ___aomod
  4357  0AF7                     ___aomod:
  4358  0AF7                     l1948:	
  4359                           ;incstack = 0
  4360                           ; Regs used in ___aomod: [wreg+fsr1l+fsr1h+status,2+status,0]
  4361                           
  4362  0AF7  01F3               	clrf	___aomod@sign
  4363  0AF8                     l1950:
  4364  0AF8  3028               	movlw	low ___aomod@dividend
  4365  0AF9  0086               	movwf	6
  4366  0AFA  3000               	movlw	high ___aomod@dividend
  4367  0AFB  0087               	movwf	7
  4368  0AFC  3F47               	moviw [7]fsr1
  4369  0AFD  00F1               	movwf	??___aomod
  4370  0AFE  1FF1               	btfss	??___aomod,7
  4371  0AFF  2B01               	goto	u2311
  4372  0B00  2B02               	goto	u2310
  4373  0B01                     u2311:
  4374  0B01  2B23               	goto	l1954
  4375  0B02                     u2310:
  4376  0B02                     l1952:
  4377  0B02  0140               	movlb	0	; select bank0
  4378  0B03  09A8               	comf	___aomod@dividend,f
  4379  0B04  09A9               	comf	___aomod@dividend+1,f
  4380  0B05  09AA               	comf	___aomod@dividend+2,f
  4381  0B06  09AB               	comf	___aomod@dividend+3,f
  4382  0B07  09AC               	comf	___aomod@dividend+4,f
  4383  0B08  09AD               	comf	___aomod@dividend+5,f
  4384  0B09  09AE               	comf	___aomod@dividend+6,f
  4385  0B0A  09AF               	comf	___aomod@dividend+7,f
  4386  0B0B  0AA8               	incf	___aomod@dividend,f
  4387  0B0C  1D03               	skipz
  4388  0B0D  2B21               	goto	u232lld
  4389  0B0E  0AA9               	incf	___aomod@dividend+1,f
  4390  0B0F  1D03               	skipz
  4391  0B10  2B21               	goto	u232lld
  4392  0B11  0AAA               	incf	___aomod@dividend+2,f
  4393  0B12  1D03               	skipz
  4394  0B13  2B21               	goto	u232lld
  4395  0B14  0AAB               	incf	___aomod@dividend+3,f
  4396  0B15  1D03               	skipz
  4397  0B16  2B21               	goto	u232lld
  4398  0B17  0AAC               	incf	___aomod@dividend+4,f
  4399  0B18  1D03               	skipz
  4400  0B19  2B21               	goto	u232lld
  4401  0B1A  0AAD               	incf	___aomod@dividend+5,f
  4402  0B1B  1D03               	skipz
  4403  0B1C  2B21               	goto	u232lld
  4404  0B1D  0AAE               	incf	___aomod@dividend+6,f
  4405  0B1E  1D03               	skipz
  4406  0B1F  2B21               	goto	u232lld
  4407  0B20  0AAF               	incf	___aomod@dividend+7,f
  4408  0B21                     u232lld:
  4409  0B21  01F3               	clrf	___aomod@sign
  4410  0B22  0AF3               	incf	___aomod@sign,f
  4411  0B23                     l1954:
  4412  0B23  3020               	movlw	low ___aomod@divisor
  4413  0B24  0086               	movwf	6
  4414  0B25  3000               	movlw	high ___aomod@divisor
  4415  0B26  0087               	movwf	7
  4416  0B27  3F47               	moviw [7]fsr1
  4417  0B28  00F1               	movwf	??___aomod
  4418  0B29  1FF1               	btfss	??___aomod,7
  4419  0B2A  2B2C               	goto	u2331
  4420  0B2B  2B2D               	goto	u2330
  4421  0B2C                     u2331:
  4422  0B2C  2B4C               	goto	l1958
  4423  0B2D                     u2330:
  4424  0B2D                     l1956:
  4425  0B2D  0140               	movlb	0	; select bank0
  4426  0B2E  09A0               	comf	___aomod@divisor,f
  4427  0B2F  09A1               	comf	___aomod@divisor+1,f
  4428  0B30  09A2               	comf	___aomod@divisor+2,f
  4429  0B31  09A3               	comf	___aomod@divisor+3,f
  4430  0B32  09A4               	comf	___aomod@divisor+4,f
  4431  0B33  09A5               	comf	___aomod@divisor+5,f
  4432  0B34  09A6               	comf	___aomod@divisor+6,f
  4433  0B35  09A7               	comf	___aomod@divisor+7,f
  4434  0B36  0AA0               	incf	___aomod@divisor,f
  4435  0B37  1D03               	skipz
  4436  0B38  2B4C               	goto	u234lld
  4437  0B39  0AA1               	incf	___aomod@divisor+1,f
  4438  0B3A  1D03               	skipz
  4439  0B3B  2B4C               	goto	u234lld
  4440  0B3C  0AA2               	incf	___aomod@divisor+2,f
  4441  0B3D  1D03               	skipz
  4442  0B3E  2B4C               	goto	u234lld
  4443  0B3F  0AA3               	incf	___aomod@divisor+3,f
  4444  0B40  1D03               	skipz
  4445  0B41  2B4C               	goto	u234lld
  4446  0B42  0AA4               	incf	___aomod@divisor+4,f
  4447  0B43  1D03               	skipz
  4448  0B44  2B4C               	goto	u234lld
  4449  0B45  0AA5               	incf	___aomod@divisor+5,f
  4450  0B46  1D03               	skipz
  4451  0B47  2B4C               	goto	u234lld
  4452  0B48  0AA6               	incf	___aomod@divisor+6,f
  4453  0B49  1D03               	skipz
  4454  0B4A  2B4C               	goto	u234lld
  4455  0B4B  0AA7               	incf	___aomod@divisor+7,f
  4456  0B4C                     u234lld:
  4457  0B4C                     l1958:
  4458  0B4C  0140               	movlb	0	; select bank0
  4459  0B4D  0820               	movf	___aomod@divisor,w
  4460  0B4E  0421               	iorwf	___aomod@divisor+1,w
  4461  0B4F  0422               	iorwf	___aomod@divisor+2,w
  4462  0B50  0423               	iorwf	___aomod@divisor+3,w
  4463  0B51  0424               	iorwf	___aomod@divisor+4,w
  4464  0B52  0425               	iorwf	___aomod@divisor+5,w
  4465  0B53  0426               	iorwf	___aomod@divisor+6,w
  4466  0B54  0427               	iorwf	___aomod@divisor+7,w
  4467  0B55  1903               	skipnz
  4468  0B56  2B58               	goto	u2351
  4469  0B57  2B59               	goto	u2350
  4470  0B58                     u2351:
  4471  0B58  2BAC               	goto	l1974
  4472  0B59                     u2350:
  4473  0B59                     l1960:
  4474  0B59  01F2               	clrf	___aomod@counter
  4475  0B5A  0AF2               	incf	___aomod@counter,f
  4476  0B5B  2B68               	goto	l1966
  4477  0B5C                     l1962:
  4478  0B5C  35A0               	lslf	___aomod@divisor,f
  4479  0B5D  0DA1               	rlf	___aomod@divisor+1,f
  4480  0B5E  0DA2               	rlf	___aomod@divisor+2,f
  4481  0B5F  0DA3               	rlf	___aomod@divisor+3,f
  4482  0B60  0DA4               	rlf	___aomod@divisor+4,f
  4483  0B61  0DA5               	rlf	___aomod@divisor+5,f
  4484  0B62  0DA6               	rlf	___aomod@divisor+6,f
  4485  0B63  0DA7               	rlf	___aomod@divisor+7,f
  4486  0B64                     l1964:
  4487  0B64  3001               	movlw	1
  4488  0B65  00F1               	movwf	??___aomod
  4489  0B66  0871               	movf	??___aomod,w
  4490  0B67  07F2               	addwf	___aomod@counter,f
  4491  0B68                     l1966:
  4492  0B68  1FA7               	btfss	___aomod@divisor+7,7
  4493  0B69  2B6B               	goto	u2361
  4494  0B6A  2B6C               	goto	u2360
  4495  0B6B                     u2361:
  4496  0B6B  2B5C               	goto	l1962
  4497  0B6C                     u2360:
  4498  0B6C                     l1968:
  4499  0B6C  0827               	movf	___aomod@divisor+7,w
  4500  0B6D  022F               	subwf	___aomod@dividend+7,w
  4501  0B6E  1D03               	skipz
  4502  0B6F  2B8A               	goto	u2375
  4503  0B70  0826               	movf	___aomod@divisor+6,w
  4504  0B71  022E               	subwf	___aomod@dividend+6,w
  4505  0B72  1D03               	skipz
  4506  0B73  2B8A               	goto	u2375
  4507  0B74  0825               	movf	___aomod@divisor+5,w
  4508  0B75  022D               	subwf	___aomod@dividend+5,w
  4509  0B76  1D03               	skipz
  4510  0B77  2B8A               	goto	u2375
  4511  0B78  0824               	movf	___aomod@divisor+4,w
  4512  0B79  022C               	subwf	___aomod@dividend+4,w
  4513  0B7A  1D03               	skipz
  4514  0B7B  2B8A               	goto	u2375
  4515  0B7C  0823               	movf	___aomod@divisor+3,w
  4516  0B7D  022B               	subwf	___aomod@dividend+3,w
  4517  0B7E  1D03               	skipz
  4518  0B7F  2B8A               	goto	u2375
  4519  0B80  0822               	movf	___aomod@divisor+2,w
  4520  0B81  022A               	subwf	___aomod@dividend+2,w
  4521  0B82  1D03               	skipz
  4522  0B83  2B8A               	goto	u2375
  4523  0B84  0821               	movf	___aomod@divisor+1,w
  4524  0B85  0229               	subwf	___aomod@dividend+1,w
  4525  0B86  1D03               	skipz
  4526  0B87  2B8A               	goto	u2375
  4527  0B88  0820               	movf	___aomod@divisor,w
  4528  0B89  0228               	subwf	___aomod@dividend,w
  4529  0B8A                     u2375:
  4530  0B8A  1C03               	skipc
  4531  0B8B  2B8D               	goto	u2371
  4532  0B8C  2B8E               	goto	u2370
  4533  0B8D                     u2371:
  4534  0B8D  2B9E               	goto	l1972
  4535  0B8E                     u2370:
  4536  0B8E                     l1970:
  4537  0B8E  0820               	movf	___aomod@divisor,w
  4538  0B8F  02A8               	subwf	___aomod@dividend,f
  4539  0B90  0821               	movf	___aomod@divisor+1,w
  4540  0B91  3BA9               	subwfb	___aomod@dividend+1,f
  4541  0B92  0822               	movf	___aomod@divisor+2,w
  4542  0B93  3BAA               	subwfb	___aomod@dividend+2,f
  4543  0B94  0823               	movf	___aomod@divisor+3,w
  4544  0B95  3BAB               	subwfb	___aomod@dividend+3,f
  4545  0B96  0824               	movf	___aomod@divisor+4,w
  4546  0B97  3BAC               	subwfb	___aomod@dividend+4,f
  4547  0B98  0825               	movf	___aomod@divisor+5,w
  4548  0B99  3BAD               	subwfb	___aomod@dividend+5,f
  4549  0B9A  0826               	movf	___aomod@divisor+6,w
  4550  0B9B  3BAE               	subwfb	___aomod@dividend+6,f
  4551  0B9C  0827               	movf	___aomod@divisor+7,w
  4552  0B9D  3BAF               	subwfb	___aomod@dividend+7,f
  4553  0B9E                     l1972:
  4554  0B9E  36A7               	lsrf	___aomod@divisor+7,f
  4555  0B9F  0CA6               	rrf	___aomod@divisor+6,f
  4556  0BA0  0CA5               	rrf	___aomod@divisor+5,f
  4557  0BA1  0CA4               	rrf	___aomod@divisor+4,f
  4558  0BA2  0CA3               	rrf	___aomod@divisor+3,f
  4559  0BA3  0CA2               	rrf	___aomod@divisor+2,f
  4560  0BA4  0CA1               	rrf	___aomod@divisor+1,f
  4561  0BA5  0CA0               	rrf	___aomod@divisor,f
  4562  0BA6  3001               	movlw	1
  4563  0BA7  02F2               	subwf	___aomod@counter,f
  4564  0BA8  1D03               	btfss	3,2
  4565  0BA9  2BAB               	goto	u2381
  4566  0BAA  2BAC               	goto	u2380
  4567  0BAB                     u2381:
  4568  0BAB  2B6C               	goto	l1968
  4569  0BAC                     u2380:
  4570  0BAC                     l1974:
  4571  0BAC  0873               	movf	___aomod@sign,w
  4572  0BAD  1903               	btfsc	3,2
  4573  0BAE  2BB0               	goto	u2391
  4574  0BAF  2BB1               	goto	u2390
  4575  0BB0                     u2391:
  4576  0BB0  2BCF               	goto	l361
  4577  0BB1                     u2390:
  4578  0BB1                     l1976:
  4579  0BB1  09A8               	comf	___aomod@dividend,f
  4580  0BB2  09A9               	comf	___aomod@dividend+1,f
  4581  0BB3  09AA               	comf	___aomod@dividend+2,f
  4582  0BB4  09AB               	comf	___aomod@dividend+3,f
  4583  0BB5  09AC               	comf	___aomod@dividend+4,f
  4584  0BB6  09AD               	comf	___aomod@dividend+5,f
  4585  0BB7  09AE               	comf	___aomod@dividend+6,f
  4586  0BB8  09AF               	comf	___aomod@dividend+7,f
  4587  0BB9  0AA8               	incf	___aomod@dividend,f
  4588  0BBA  1D03               	skipz
  4589  0BBB  2BCF               	goto	u240lld
  4590  0BBC  0AA9               	incf	___aomod@dividend+1,f
  4591  0BBD  1D03               	skipz
  4592  0BBE  2BCF               	goto	u240lld
  4593  0BBF  0AAA               	incf	___aomod@dividend+2,f
  4594  0BC0  1D03               	skipz
  4595  0BC1  2BCF               	goto	u240lld
  4596  0BC2  0AAB               	incf	___aomod@dividend+3,f
  4597  0BC3  1D03               	skipz
  4598  0BC4  2BCF               	goto	u240lld
  4599  0BC5  0AAC               	incf	___aomod@dividend+4,f
  4600  0BC6  1D03               	skipz
  4601  0BC7  2BCF               	goto	u240lld
  4602  0BC8  0AAD               	incf	___aomod@dividend+5,f
  4603  0BC9  1D03               	skipz
  4604  0BCA  2BCF               	goto	u240lld
  4605  0BCB  0AAE               	incf	___aomod@dividend+6,f
  4606  0BCC  1D03               	skipz
  4607  0BCD  2BCF               	goto	u240lld
  4608  0BCE  0AAF               	incf	___aomod@dividend+7,f
  4609  0BCF                     u240lld:
  4610  0BCF                     l361:
  4611  0BCF  0140               	movlb	0	; select bank0
  4612  0BD0  0828               	movf	___aomod@dividend,w
  4613  0BD1  00A0               	movwf	?___aomod
  4614  0BD2  0829               	movf	___aomod@dividend+1,w
  4615  0BD3  00A1               	movwf	?___aomod+1
  4616  0BD4  082A               	movf	___aomod@dividend+2,w
  4617  0BD5  00A2               	movwf	?___aomod+2
  4618  0BD6  082B               	movf	___aomod@dividend+3,w
  4619  0BD7  00A3               	movwf	?___aomod+3
  4620  0BD8  082C               	movf	___aomod@dividend+4,w
  4621  0BD9  00A4               	movwf	?___aomod+4
  4622  0BDA  082D               	movf	___aomod@dividend+5,w
  4623  0BDB  00A5               	movwf	?___aomod+5
  4624  0BDC  082E               	movf	___aomod@dividend+6,w
  4625  0BDD  00A6               	movwf	?___aomod+6
  4626  0BDE  082F               	movf	___aomod@dividend+7,w
  4627  0BDF  00A7               	movwf	?___aomod+7
  4628  0BE0                     l362:
  4629  0BE0  0008               	return
  4630  0BE1                     __end_of___aomod:
  4631                           
  4632                           	psect	text16
  4633  0BE1                     __ptext16:	
  4634 ;; *************** function ___aodiv *****************
  4635 ;; Defined at:
  4636 ;;		line 7 in file "C:\Program Files\Microchip\xc8\v2.32\pic\sources\c99\common\aodiv.c"
  4637 ;; Parameters:    Size  Location     Type
  4638 ;;  divisor         8    0[BANK0 ] long long 
  4639 ;;  dividend        8    8[BANK0 ] long long 
  4640 ;; Auto vars:     Size  Location     Type
  4641 ;;  quotient        8    4[COMMON] long long 
  4642 ;;  sign            1    3[COMMON] unsigned char 
  4643 ;;  counter         1    2[COMMON] unsigned char 
  4644 ;; Return value:  Size  Location     Type
  4645 ;;                  8    0[BANK0 ] long long 
  4646 ;; Registers used:
  4647 ;;		wreg, fsr1l, fsr1h, status,2, status,0
  4648 ;; Tracked objects:
  4649 ;;		On entry : 0/0
  4650 ;;		On exit  : 0/0
  4651 ;;		Unchanged: 0/0
  4652 ;; Data sizes:     COMMON   BANK0   BANK1   BANK2   BANK3   BANK4   BANK5   BANK6   BANK7   BANK8   BANK9  BANK10  BANK1
      +1  BANK12  BANK13  BANK14  BANK15  BANK16  BANK17  BANK18  BANK19  BANK20  BANK21  BANK22  BANK23  BANK24  BANK25
  4653 ;;      Params:         0      16       0       0       0       0       0       0       0       0       0       0       
      +0       0       0       0       0       0       0       0       0       0       0       0       0       0       0
  4654 ;;      Locals:        10       0       0       0       0       0       0       0       0       0       0       0       
      +0       0       0       0       0       0       0       0       0       0       0       0       0       0       0
  4655 ;;      Temps:          1       0       0       0       0       0       0       0       0       0       0       0       
      +0       0       0       0       0       0       0       0       0       0       0       0       0       0       0
  4656 ;;      Totals:        11      16       0       0       0       0       0       0       0       0       0       0       
      +0       0       0       0       0       0       0       0       0       0       0       0       0       0       0
  4657 ;;Total ram usage:       27 bytes
  4658 ;; Hardware stack levels used: 1
  4659 ;; Hardware stack levels required when called: 1
  4660 ;; This function calls:
  4661 ;;		Nothing
  4662 ;; This function is called by:
  4663 ;;		_setNcoFreq
  4664 ;;		_dtoa
  4665 ;; This function uses a non-reentrant model
  4666 ;;
  4667                           
  4668                           
  4669                           ;psect for function ___aodiv
  4670  0BE1                     ___aodiv:
  4671  0BE1                     l1910:	
  4672                           ;incstack = 0
  4673                           ; Regs used in ___aodiv: [wreg+fsr1l+fsr1h+status,2+status,0]
  4674                           
  4675  0BE1  01F3               	clrf	___aodiv@sign
  4676  0BE2                     l1912:
  4677  0BE2  3020               	movlw	low ___aodiv@divisor
  4678  0BE3  0086               	movwf	6
  4679  0BE4  3000               	movlw	high ___aodiv@divisor
  4680  0BE5  0087               	movwf	7
  4681  0BE6  3F47               	moviw [7]fsr1
  4682  0BE7  00F1               	movwf	??___aodiv
  4683  0BE8  1FF1               	btfss	??___aodiv,7
  4684  0BE9  2BEB               	goto	u2201
  4685  0BEA  2BEC               	goto	u2200
  4686  0BEB                     u2201:
  4687  0BEB  2C0D               	goto	l1916
  4688  0BEC                     u2200:
  4689  0BEC                     l1914:
  4690  0BEC  0140               	movlb	0	; select bank0
  4691  0BED  09A0               	comf	___aodiv@divisor,f
  4692  0BEE  09A1               	comf	___aodiv@divisor+1,f
  4693  0BEF  09A2               	comf	___aodiv@divisor+2,f
  4694  0BF0  09A3               	comf	___aodiv@divisor+3,f
  4695  0BF1  09A4               	comf	___aodiv@divisor+4,f
  4696  0BF2  09A5               	comf	___aodiv@divisor+5,f
  4697  0BF3  09A6               	comf	___aodiv@divisor+6,f
  4698  0BF4  09A7               	comf	___aodiv@divisor+7,f
  4699  0BF5  0AA0               	incf	___aodiv@divisor,f
  4700  0BF6  1D03               	skipz
  4701  0BF7  2C0B               	goto	u221lld
  4702  0BF8  0AA1               	incf	___aodiv@divisor+1,f
  4703  0BF9  1D03               	skipz
  4704  0BFA  2C0B               	goto	u221lld
  4705  0BFB  0AA2               	incf	___aodiv@divisor+2,f
  4706  0BFC  1D03               	skipz
  4707  0BFD  2C0B               	goto	u221lld
  4708  0BFE  0AA3               	incf	___aodiv@divisor+3,f
  4709  0BFF  1D03               	skipz
  4710  0C00  2C0B               	goto	u221lld
  4711  0C01  0AA4               	incf	___aodiv@divisor+4,f
  4712  0C02  1D03               	skipz
  4713  0C03  2C0B               	goto	u221lld
  4714  0C04  0AA5               	incf	___aodiv@divisor+5,f
  4715  0C05  1D03               	skipz
  4716  0C06  2C0B               	goto	u221lld
  4717  0C07  0AA6               	incf	___aodiv@divisor+6,f
  4718  0C08  1D03               	skipz
  4719  0C09  2C0B               	goto	u221lld
  4720  0C0A  0AA7               	incf	___aodiv@divisor+7,f
  4721  0C0B                     u221lld:
  4722  0C0B  01F3               	clrf	___aodiv@sign
  4723  0C0C  0AF3               	incf	___aodiv@sign,f
  4724  0C0D                     l1916:
  4725  0C0D  3028               	movlw	low ___aodiv@dividend
  4726  0C0E  0086               	movwf	6
  4727  0C0F  3000               	movlw	high ___aodiv@dividend
  4728  0C10  0087               	movwf	7
  4729  0C11  3F47               	moviw [7]fsr1
  4730  0C12  00F1               	movwf	??___aodiv
  4731  0C13  1FF1               	btfss	??___aodiv,7
  4732  0C14  2C16               	goto	u2221
  4733  0C15  2C17               	goto	u2220
  4734  0C16                     u2221:
  4735  0C16  2C3A               	goto	l1922
  4736  0C17                     u2220:
  4737  0C17                     l1918:
  4738  0C17  0140               	movlb	0	; select bank0
  4739  0C18  09A8               	comf	___aodiv@dividend,f
  4740  0C19  09A9               	comf	___aodiv@dividend+1,f
  4741  0C1A  09AA               	comf	___aodiv@dividend+2,f
  4742  0C1B  09AB               	comf	___aodiv@dividend+3,f
  4743  0C1C  09AC               	comf	___aodiv@dividend+4,f
  4744  0C1D  09AD               	comf	___aodiv@dividend+5,f
  4745  0C1E  09AE               	comf	___aodiv@dividend+6,f
  4746  0C1F  09AF               	comf	___aodiv@dividend+7,f
  4747  0C20  0AA8               	incf	___aodiv@dividend,f
  4748  0C21  1D03               	skipz
  4749  0C22  2C36               	goto	u223lld
  4750  0C23  0AA9               	incf	___aodiv@dividend+1,f
  4751  0C24  1D03               	skipz
  4752  0C25  2C36               	goto	u223lld
  4753  0C26  0AAA               	incf	___aodiv@dividend+2,f
  4754  0C27  1D03               	skipz
  4755  0C28  2C36               	goto	u223lld
  4756  0C29  0AAB               	incf	___aodiv@dividend+3,f
  4757  0C2A  1D03               	skipz
  4758  0C2B  2C36               	goto	u223lld
  4759  0C2C  0AAC               	incf	___aodiv@dividend+4,f
  4760  0C2D  1D03               	skipz
  4761  0C2E  2C36               	goto	u223lld
  4762  0C2F  0AAD               	incf	___aodiv@dividend+5,f
  4763  0C30  1D03               	skipz
  4764  0C31  2C36               	goto	u223lld
  4765  0C32  0AAE               	incf	___aodiv@dividend+6,f
  4766  0C33  1D03               	skipz
  4767  0C34  2C36               	goto	u223lld
  4768  0C35  0AAF               	incf	___aodiv@dividend+7,f
  4769  0C36                     u223lld:
  4770  0C36                     l1920:
  4771  0C36  3001               	movlw	1
  4772  0C37  00F1               	movwf	??___aodiv
  4773  0C38  0871               	movf	??___aodiv,w
  4774  0C39  06F3               	xorwf	___aodiv@sign,f
  4775  0C3A                     l1922:
  4776  0C3A  3074               	movlw	low ___aodiv@quotient
  4777  0C3B  0086               	movwf	6
  4778  0C3C  3000               	movlw	high ___aodiv@quotient
  4779  0C3D  0087               	movwf	7
  4780  0C3E  3008               	movlw	8
  4781  0C3F  00F1               	movwf	??___aodiv
  4782  0C40  3000               	movlw	0
  4783  0C41                     u2240:
  4784  0C41  001E               	movwi fsr1++
  4785  0C42  0BF1               	decfsz	??___aodiv,f
  4786  0C43  2C41               	goto	u2240
  4787  0C44                     l1924:
  4788  0C44  0140               	movlb	0	; select bank0
  4789  0C45  0820               	movf	___aodiv@divisor,w
  4790  0C46  0421               	iorwf	___aodiv@divisor+1,w
  4791  0C47  0422               	iorwf	___aodiv@divisor+2,w
  4792  0C48  0423               	iorwf	___aodiv@divisor+3,w
  4793  0C49  0424               	iorwf	___aodiv@divisor+4,w
  4794  0C4A  0425               	iorwf	___aodiv@divisor+5,w
  4795  0C4B  0426               	iorwf	___aodiv@divisor+6,w
  4796  0C4C  0427               	iorwf	___aodiv@divisor+7,w
  4797  0C4D  1903               	skipnz
  4798  0C4E  2C50               	goto	u2251
  4799  0C4F  2C51               	goto	u2250
  4800  0C50                     u2251:
  4801  0C50  2CAD               	goto	l1944
  4802  0C51                     u2250:
  4803  0C51                     l1926:
  4804  0C51  01F2               	clrf	___aodiv@counter
  4805  0C52  0AF2               	incf	___aodiv@counter,f
  4806  0C53  2C60               	goto	l1932
  4807  0C54                     l1928:
  4808  0C54  35A0               	lslf	___aodiv@divisor,f
  4809  0C55  0DA1               	rlf	___aodiv@divisor+1,f
  4810  0C56  0DA2               	rlf	___aodiv@divisor+2,f
  4811  0C57  0DA3               	rlf	___aodiv@divisor+3,f
  4812  0C58  0DA4               	rlf	___aodiv@divisor+4,f
  4813  0C59  0DA5               	rlf	___aodiv@divisor+5,f
  4814  0C5A  0DA6               	rlf	___aodiv@divisor+6,f
  4815  0C5B  0DA7               	rlf	___aodiv@divisor+7,f
  4816  0C5C                     l1930:
  4817  0C5C  3001               	movlw	1
  4818  0C5D  00F1               	movwf	??___aodiv
  4819  0C5E  0871               	movf	??___aodiv,w
  4820  0C5F  07F2               	addwf	___aodiv@counter,f
  4821  0C60                     l1932:
  4822  0C60  1FA7               	btfss	___aodiv@divisor+7,7
  4823  0C61  2C63               	goto	u2261
  4824  0C62  2C64               	goto	u2260
  4825  0C63                     u2261:
  4826  0C63  2C54               	goto	l1928
  4827  0C64                     u2260:
  4828  0C64                     l1934:
  4829  0C64  35F4               	lslf	___aodiv@quotient,f
  4830  0C65  0DF5               	rlf	___aodiv@quotient+1,f
  4831  0C66  0DF6               	rlf	___aodiv@quotient+2,f
  4832  0C67  0DF7               	rlf	___aodiv@quotient+3,f
  4833  0C68  0DF8               	rlf	___aodiv@quotient+4,f
  4834  0C69  0DF9               	rlf	___aodiv@quotient+5,f
  4835  0C6A  0DFA               	rlf	___aodiv@quotient+6,f
  4836  0C6B  0DFB               	rlf	___aodiv@quotient+7,f
  4837  0C6C                     l1936:
  4838  0C6C  0827               	movf	___aodiv@divisor+7,w
  4839  0C6D  022F               	subwf	___aodiv@dividend+7,w
  4840  0C6E  1D03               	skipz
  4841  0C6F  2C8A               	goto	u2275
  4842  0C70  0826               	movf	___aodiv@divisor+6,w
  4843  0C71  022E               	subwf	___aodiv@dividend+6,w
  4844  0C72  1D03               	skipz
  4845  0C73  2C8A               	goto	u2275
  4846  0C74  0825               	movf	___aodiv@divisor+5,w
  4847  0C75  022D               	subwf	___aodiv@dividend+5,w
  4848  0C76  1D03               	skipz
  4849  0C77  2C8A               	goto	u2275
  4850  0C78  0824               	movf	___aodiv@divisor+4,w
  4851  0C79  022C               	subwf	___aodiv@dividend+4,w
  4852  0C7A  1D03               	skipz
  4853  0C7B  2C8A               	goto	u2275
  4854  0C7C  0823               	movf	___aodiv@divisor+3,w
  4855  0C7D  022B               	subwf	___aodiv@dividend+3,w
  4856  0C7E  1D03               	skipz
  4857  0C7F  2C8A               	goto	u2275
  4858  0C80  0822               	movf	___aodiv@divisor+2,w
  4859  0C81  022A               	subwf	___aodiv@dividend+2,w
  4860  0C82  1D03               	skipz
  4861  0C83  2C8A               	goto	u2275
  4862  0C84  0821               	movf	___aodiv@divisor+1,w
  4863  0C85  0229               	subwf	___aodiv@dividend+1,w
  4864  0C86  1D03               	skipz
  4865  0C87  2C8A               	goto	u2275
  4866  0C88  0820               	movf	___aodiv@divisor,w
  4867  0C89  0228               	subwf	___aodiv@dividend,w
  4868  0C8A                     u2275:
  4869  0C8A  1C03               	skipc
  4870  0C8B  2C8D               	goto	u2271
  4871  0C8C  2C8E               	goto	u2270
  4872  0C8D                     u2271:
  4873  0C8D  2C9F               	goto	l1942
  4874  0C8E                     u2270:
  4875  0C8E                     l1938:
  4876  0C8E  0820               	movf	___aodiv@divisor,w
  4877  0C8F  02A8               	subwf	___aodiv@dividend,f
  4878  0C90  0821               	movf	___aodiv@divisor+1,w
  4879  0C91  3BA9               	subwfb	___aodiv@dividend+1,f
  4880  0C92  0822               	movf	___aodiv@divisor+2,w
  4881  0C93  3BAA               	subwfb	___aodiv@dividend+2,f
  4882  0C94  0823               	movf	___aodiv@divisor+3,w
  4883  0C95  3BAB               	subwfb	___aodiv@dividend+3,f
  4884  0C96  0824               	movf	___aodiv@divisor+4,w
  4885  0C97  3BAC               	subwfb	___aodiv@dividend+4,f
  4886  0C98  0825               	movf	___aodiv@divisor+5,w
  4887  0C99  3BAD               	subwfb	___aodiv@dividend+5,f
  4888  0C9A  0826               	movf	___aodiv@divisor+6,w
  4889  0C9B  3BAE               	subwfb	___aodiv@dividend+6,f
  4890  0C9C  0827               	movf	___aodiv@divisor+7,w
  4891  0C9D  3BAF               	subwfb	___aodiv@dividend+7,f
  4892  0C9E                     l1940:
  4893  0C9E  1474               	bsf	___aodiv@quotient,0
  4894  0C9F                     l1942:
  4895  0C9F  36A7               	lsrf	___aodiv@divisor+7,f
  4896  0CA0  0CA6               	rrf	___aodiv@divisor+6,f
  4897  0CA1  0CA5               	rrf	___aodiv@divisor+5,f
  4898  0CA2  0CA4               	rrf	___aodiv@divisor+4,f
  4899  0CA3  0CA3               	rrf	___aodiv@divisor+3,f
  4900  0CA4  0CA2               	rrf	___aodiv@divisor+2,f
  4901  0CA5  0CA1               	rrf	___aodiv@divisor+1,f
  4902  0CA6  0CA0               	rrf	___aodiv@divisor,f
  4903  0CA7  3001               	movlw	1
  4904  0CA8  02F2               	subwf	___aodiv@counter,f
  4905  0CA9  1D03               	btfss	3,2
  4906  0CAA  2CAC               	goto	u2281
  4907  0CAB  2CAD               	goto	u2280
  4908  0CAC                     u2281:
  4909  0CAC  2C64               	goto	l1934
  4910  0CAD                     u2280:
  4911  0CAD                     l1944:
  4912  0CAD  0873               	movf	___aodiv@sign,w
  4913  0CAE  1903               	btfsc	3,2
  4914  0CAF  2CB1               	goto	u2291
  4915  0CB0  2CB2               	goto	u2290
  4916  0CB1                     u2291:
  4917  0CB1  2CD0               	goto	l348
  4918  0CB2                     u2290:
  4919  0CB2                     l1946:
  4920  0CB2  09F4               	comf	___aodiv@quotient,f
  4921  0CB3  09F5               	comf	___aodiv@quotient+1,f
  4922  0CB4  09F6               	comf	___aodiv@quotient+2,f
  4923  0CB5  09F7               	comf	___aodiv@quotient+3,f
  4924  0CB6  09F8               	comf	___aodiv@quotient+4,f
  4925  0CB7  09F9               	comf	___aodiv@quotient+5,f
  4926  0CB8  09FA               	comf	___aodiv@quotient+6,f
  4927  0CB9  09FB               	comf	___aodiv@quotient+7,f
  4928  0CBA  0AF4               	incf	___aodiv@quotient,f
  4929  0CBB  1D03               	skipz
  4930  0CBC  2CD0               	goto	u230lld
  4931  0CBD  0AF5               	incf	___aodiv@quotient+1,f
  4932  0CBE  1D03               	skipz
  4933  0CBF  2CD0               	goto	u230lld
  4934  0CC0  0AF6               	incf	___aodiv@quotient+2,f
  4935  0CC1  1D03               	skipz
  4936  0CC2  2CD0               	goto	u230lld
  4937  0CC3  0AF7               	incf	___aodiv@quotient+3,f
  4938  0CC4  1D03               	skipz
  4939  0CC5  2CD0               	goto	u230lld
  4940  0CC6  0AF8               	incf	___aodiv@quotient+4,f
  4941  0CC7  1D03               	skipz
  4942  0CC8  2CD0               	goto	u230lld
  4943  0CC9  0AF9               	incf	___aodiv@quotient+5,f
  4944  0CCA  1D03               	skipz
  4945  0CCB  2CD0               	goto	u230lld
  4946  0CCC  0AFA               	incf	___aodiv@quotient+6,f
  4947  0CCD  1D03               	skipz
  4948  0CCE  2CD0               	goto	u230lld
  4949  0CCF  0AFB               	incf	___aodiv@quotient+7,f
  4950  0CD0                     u230lld:
  4951  0CD0                     l348:
  4952  0CD0  0874               	movf	___aodiv@quotient,w
  4953  0CD1  0140               	movlb	0	; select bank0
  4954  0CD2  00A0               	movwf	?___aodiv
  4955  0CD3  0875               	movf	___aodiv@quotient+1,w
  4956  0CD4  00A1               	movwf	?___aodiv+1
  4957  0CD5  0876               	movf	___aodiv@quotient+2,w
  4958  0CD6  00A2               	movwf	?___aodiv+2
  4959  0CD7  0877               	movf	___aodiv@quotient+3,w
  4960  0CD8  00A3               	movwf	?___aodiv+3
  4961  0CD9  0878               	movf	___aodiv@quotient+4,w
  4962  0CDA  00A4               	movwf	?___aodiv+4
  4963  0CDB  0879               	movf	___aodiv@quotient+5,w
  4964  0CDC  00A5               	movwf	?___aodiv+5
  4965  0CDD  087A               	movf	___aodiv@quotient+6,w
  4966  0CDE  00A6               	movwf	?___aodiv+6
  4967  0CDF  087B               	movf	___aodiv@quotient+7,w
  4968  0CE0  00A7               	movwf	?___aodiv+7
  4969  0CE1                     l349:
  4970  0CE1  0008               	return
  4971  0CE2                     __end_of___aodiv:
  4972                           
  4973                           	psect	text17
  4974  15FA                     __ptext17:	
  4975 ;; *************** function _lroundf *****************
  4976 ;; Defined at:
  4977 ;;		line 3 in file "C:\Program Files\Microchip\xc8\v2.32\pic\sources\c99\common\lroundf.c"
  4978 ;; Parameters:    Size  Location     Type
  4979 ;;  x               4   69[BANK0 ] float 
  4980 ;; Auto vars:     Size  Location     Type
  4981 ;;		None
  4982 ;; Return value:  Size  Location     Type
  4983 ;;                  4   69[BANK0 ] long 
  4984 ;; Registers used:
  4985 ;;		wreg, status,2, status,0, pclath, cstack
  4986 ;; Tracked objects:
  4987 ;;		On entry : 0/0
  4988 ;;		On exit  : 0/0
  4989 ;;		Unchanged: 0/0
  4990 ;; Data sizes:     COMMON   BANK0   BANK1   BANK2   BANK3   BANK4   BANK5   BANK6   BANK7   BANK8   BANK9  BANK10  BANK1
      +1  BANK12  BANK13  BANK14  BANK15  BANK16  BANK17  BANK18  BANK19  BANK20  BANK21  BANK22  BANK23  BANK24  BANK25
  4991 ;;      Params:         0       4       0       0       0       0       0       0       0       0       0       0       
      +0       0       0       0       0       0       0       0       0       0       0       0       0       0       0
  4992 ;;      Locals:         0       0       0       0       0       0       0       0       0       0       0       0       
      +0       0       0       0       0       0       0       0       0       0       0       0       0       0       0
  4993 ;;      Temps:          0       0       0       0       0       0       0       0       0       0       0       0       
      +0       0       0       0       0       0       0       0       0       0       0       0       0       0       0
  4994 ;;      Totals:         0       4       0       0       0       0       0       0       0       0       0       0       
      +0       0       0       0       0       0       0       0       0       0       0       0       0       0       0
  4995 ;;Total ram usage:        4 bytes
  4996 ;; Hardware stack levels used: 1
  4997 ;; Hardware stack levels required when called: 4
  4998 ;; This function calls:
  4999 ;;		___fltol
  5000 ;;		_roundf
  5001 ;; This function is called by:
  5002 ;;		_main
  5003 ;; This function uses a non-reentrant model
  5004 ;;
  5005                           
  5006                           
  5007                           ;psect for function _lroundf
  5008  15FA                     _lroundf:
  5009  15FA                     l2640:	
  5010                           ;incstack = 0
  5011                           ; Regs used in _lroundf: [wreg+status,2+status,0+pclath+cstack]
  5012                           
  5013  15FA  0140               	movlb	0	; select bank0
  5014  15FB  0868               	movf	lroundf@x+3,w
  5015  15FC  00C3               	movwf	roundf@x+3
  5016  15FD  0867               	movf	lroundf@x+2,w
  5017  15FE  00C2               	movwf	roundf@x+2
  5018  15FF  0866               	movf	lroundf@x+1,w
  5019  1600  00C1               	movwf	roundf@x+1
  5020  1601  0865               	movf	lroundf@x,w
  5021  1602  00C0               	movwf	roundf@x
  5022  1603  3184  24C7  3195   	fcall	_roundf
  5023  1606  0140               	movlb	0	; select bank0
  5024  1607  0843               	movf	?_roundf+3,w
  5025  1608  00DD               	movwf	___fltol@f1+3
  5026  1609  0842               	movf	?_roundf+2,w
  5027  160A  00DC               	movwf	___fltol@f1+2
  5028  160B  0841               	movf	?_roundf+1,w
  5029  160C  00DB               	movwf	___fltol@f1+1
  5030  160D  0840               	movf	?_roundf,w
  5031  160E  00DA               	movwf	___fltol@f1
  5032  160F  3197  278B  3195   	fcall	___fltol
  5033  1612  0140               	movlb	0	; select bank0
  5034  1613  085D               	movf	?___fltol+3,w
  5035  1614  00E8               	movwf	?_lroundf+3
  5036  1615  085C               	movf	?___fltol+2,w
  5037  1616  00E7               	movwf	?_lroundf+2
  5038  1617  085B               	movf	?___fltol+1,w
  5039  1618  00E6               	movwf	?_lroundf+1
  5040  1619  085A               	movf	?___fltol,w
  5041  161A  00E5               	movwf	?_lroundf
  5042  161B                     l709:
  5043  161B  0008               	return
  5044  161C                     __end_of_lroundf:
  5045                           
  5046                           	psect	text18
  5047  04C7                     __ptext18:	
  5048 ;; *************** function _roundf *****************
  5049 ;; Defined at:
  5050 ;;		line 12 in file "C:\Program Files\Microchip\xc8\v2.32\pic\sources\c99\common\roundf.c"
  5051 ;; Parameters:    Size  Location     Type
  5052 ;;  x               4   32[BANK0 ] float 
  5053 ;; Auto vars:     Size  Location     Type
  5054 ;;  y               4   54[BANK0 ] float 
  5055 ;;  u               4   50[BANK0 ] struct .
  5056 ;;  e               2   44[BANK0 ] int 
  5057 ;; Return value:  Size  Location     Type
  5058 ;;                  4   32[BANK0 ] float 
  5059 ;; Registers used:
  5060 ;;		wreg, status,2, status,0, pclath, cstack
  5061 ;; Tracked objects:
  5062 ;;		On entry : 0/0
  5063 ;;		On exit  : 0/0
  5064 ;;		Unchanged: 0/0
  5065 ;; Data sizes:     COMMON   BANK0   BANK1   BANK2   BANK3   BANK4   BANK5   BANK6   BANK7   BANK8   BANK9  BANK10  BANK1
      +1  BANK12  BANK13  BANK14  BANK15  BANK16  BANK17  BANK18  BANK19  BANK20  BANK21  BANK22  BANK23  BANK24  BANK25
  5066 ;;      Params:         0       4       0       0       0       0       0       0       0       0       0       0       
      +0       0       0       0       0       0       0       0       0       0       0       0       0       0       0
  5067 ;;      Locals:         0      18       0       0       0       0       0       0       0       0       0       0       
      +0       0       0       0       0       0       0       0       0       0       0       0       0       0       0
  5068 ;;      Temps:          0       4       0       0       0       0       0       0       0       0       0       0       
      +0       0       0       0       0       0       0       0       0       0       0       0       0       0       0
  5069 ;;      Totals:         0      26       0       0       0       0       0       0       0       0       0       0       
      +0       0       0       0       0       0       0       0       0       0       0       0       0       0       0
  5070 ;;Total ram usage:       26 bytes
  5071 ;; Hardware stack levels used: 1
  5072 ;; Hardware stack levels required when called: 3
  5073 ;; This function calls:
  5074 ;;		___fladd
  5075 ;;		___flge
  5076 ;;		___flmul
  5077 ;;		___flneg
  5078 ;;		___flsub
  5079 ;; This function is called by:
  5080 ;;		_lroundf
  5081 ;; This function uses a non-reentrant model
  5082 ;;
  5083                           
  5084                           
  5085                           ;psect for function _roundf
  5086  04C7                     _roundf:
  5087  04C7                     l2556:	
  5088                           ;incstack = 0
  5089                           ; Regs used in _roundf: [wreg+status,2+status,0+pclath+cstack]
  5090                           
  5091  04C7  0141               	movlb	1	; select bank1
  5092  04C8  0823               	movf	(roundf@F528+3)^(0+128),w
  5093  04C9  0140               	movlb	0	; select bank0
  5094  04CA  00D5               	movwf	roundf@u+3
  5095  04CB  0141               	movlb	1	; select bank1
  5096  04CC  0822               	movf	(roundf@F528+2)^(0+128),w
  5097  04CD  0140               	movlb	0	; select bank0
  5098  04CE  00D4               	movwf	roundf@u+2
  5099  04CF  0141               	movlb	1	; select bank1
  5100  04D0  0821               	movf	(roundf@F528+1)^(0+128),w
  5101  04D1  0140               	movlb	0	; select bank0
  5102  04D2  00D3               	movwf	roundf@u+1
  5103  04D3  0141               	movlb	1	; select bank1
  5104  04D4  0820               	movf	roundf@F528^(0+128),w
  5105  04D5  0140               	movlb	0	; select bank0
  5106  04D6  00D2               	movwf	roundf@u
  5107  04D7  0843               	movf	roundf@x+3,w
  5108  04D8  00D5               	movwf	roundf@u+3
  5109  04D9  0842               	movf	roundf@x+2,w
  5110  04DA  00D4               	movwf	roundf@u+2
  5111  04DB  0841               	movf	roundf@x+1,w
  5112  04DC  00D3               	movwf	roundf@u+1
  5113  04DD  0840               	movf	roundf@x,w
  5114  04DE  00D2               	movwf	roundf@u
  5115  04DF                     l2558:
  5116  04DF  0852               	movf	roundf@u,w
  5117  04E0  00C4               	movwf	??_roundf
  5118  04E1  0853               	movf	roundf@u+1,w
  5119  04E2  00C5               	movwf	??_roundf+1
  5120  04E3  0854               	movf	roundf@u+2,w
  5121  04E4  00C6               	movwf	??_roundf+2
  5122  04E5  0855               	movf	roundf@u+3,w
  5123  04E6  00C7               	movwf	??_roundf+3
  5124  04E7  3017               	movlw	23
  5125  04E8                     u3615:
  5126  04E8  36C7               	lsrf	??_roundf+3,f
  5127  04E9  0CC6               	rrf	??_roundf+2,f
  5128  04EA  0CC5               	rrf	??_roundf+1,f
  5129  04EB  0CC4               	rrf	??_roundf,f
  5130  04EC                     u3610:
  5131  04EC  0B89               	decfsz	9,f
  5132  04ED  2CE8               	goto	u3615
  5133  04EE  30FF               	movlw	255
  5134  04EF  0544               	andwf	??_roundf,w
  5135  04F0  00CC               	movwf	roundf@e
  5136  04F1  3000               	movlw	0
  5137  04F2  0545               	andwf	??_roundf+1,w
  5138  04F3  00CD               	movwf	roundf@e+1
  5139  04F4                     l2560:
  5140  04F4  084D               	movf	roundf@e+1,w
  5141  04F5  3A80               	xorlw	128
  5142  04F6  00C4               	movwf	??_roundf
  5143  04F7  3080               	movlw	128
  5144  04F8  0244               	subwf	??_roundf,w
  5145  04F9  1D03               	skipz
  5146  04FA  2CFD               	goto	u3625
  5147  04FB  3096               	movlw	150
  5148  04FC  024C               	subwf	roundf@e,w
  5149  04FD                     u3625:
  5150  04FD  1C03               	skipc
  5151  04FE  2D00               	goto	u3621
  5152  04FF  2D01               	goto	u3620
  5153  0500                     u3621:
  5154  0500  2D02               	goto	l2564
  5155  0501                     u3620:
  5156  0501                     l2562:
  5157  0501  2EA1               	goto	l828
  5158  0502                     l2564:
  5159  0502  0140               	movlb	0	; select bank0
  5160  0503  0852               	movf	roundf@u,w
  5161  0504  00C4               	movwf	??_roundf
  5162  0505  0853               	movf	roundf@u+1,w
  5163  0506  00C5               	movwf	??_roundf+1
  5164  0507  0854               	movf	roundf@u+2,w
  5165  0508  00C6               	movwf	??_roundf+2
  5166  0509  0855               	movf	roundf@u+3,w
  5167  050A  00C7               	movwf	??_roundf+3
  5168  050B  301F               	movlw	31
  5169  050C                     u3635:
  5170  050C  36C7               	lsrf	??_roundf+3,f
  5171  050D  0CC6               	rrf	??_roundf+2,f
  5172  050E  0CC5               	rrf	??_roundf+1,f
  5173  050F  0CC4               	rrf	??_roundf,f
  5174  0510                     u3630:
  5175  0510  0B89               	decfsz	9,f
  5176  0511  2D0C               	goto	u3635
  5177  0512  0847               	movf	??_roundf+3,w
  5178  0513  0446               	iorwf	??_roundf+2,w
  5179  0514  0445               	iorwf	??_roundf+1,w
  5180  0515  0444               	iorwf	??_roundf,w
  5181  0516  1903               	skipnz
  5182  0517  2D19               	goto	u3641
  5183  0518  2D1A               	goto	u3640
  5184  0519                     u3641:
  5185  0519  2D2E               	goto	l2568
  5186  051A                     u3640:
  5187  051A                     l2566:
  5188  051A  0843               	movf	roundf@x+3,w
  5189  051B  00F4               	movwf	___flneg@f1+3
  5190  051C  0842               	movf	roundf@x+2,w
  5191  051D  00F3               	movwf	___flneg@f1+2
  5192  051E  0841               	movf	roundf@x+1,w
  5193  051F  00F2               	movwf	___flneg@f1+1
  5194  0520  0840               	movf	roundf@x,w
  5195  0521  00F1               	movwf	___flneg@f1
  5196  0522  3195  2572  3184   	fcall	___flneg
  5197  0525  0874               	movf	?___flneg+3,w
  5198  0526  0140               	movlb	0	; select bank0
  5199  0527  00C3               	movwf	roundf@x+3
  5200  0528  0873               	movf	?___flneg+2,w
  5201  0529  00C2               	movwf	roundf@x+2
  5202  052A  0872               	movf	?___flneg+1,w
  5203  052B  00C1               	movwf	roundf@x+1
  5204  052C  0871               	movf	?___flneg,w
  5205  052D  00C0               	movwf	roundf@x
  5206  052E                     l2568:
  5207  052E  084D               	movf	roundf@e+1,w
  5208  052F  3A80               	xorlw	128
  5209  0530  00C4               	movwf	??_roundf
  5210  0531  3080               	movlw	128
  5211  0532  0244               	subwf	??_roundf,w
  5212  0533  1D03               	skipz
  5213  0534  2D37               	goto	u3655
  5214  0535  307E               	movlw	126
  5215  0536  024C               	subwf	roundf@e,w
  5216  0537                     u3655:
  5217  0537  1803               	skipnc
  5218  0538  2D3A               	goto	u3651
  5219  0539  2D3B               	goto	u3650
  5220  053A                     u3651:
  5221  053A  2D59               	goto	l2574
  5222  053B                     u3650:
  5223  053B                     l2570:
  5224  053B  3000               	movlw	0
  5225  053C  0140               	movlb	0	; select bank0
  5226  053D  00A9               	movwf	___flmul@b+3
  5227  053E  3000               	movlw	0
  5228  053F  00A8               	movwf	___flmul@b+2
  5229  0540  3000               	movlw	0
  5230  0541  00A7               	movwf	___flmul@b+1
  5231  0542  3000               	movlw	0
  5232  0543  00A6               	movwf	___flmul@b
  5233  0544  0855               	movf	roundf@u+3,w
  5234  0545  00AD               	movwf	___flmul@a+3
  5235  0546  0854               	movf	roundf@u+2,w
  5236  0547  00AC               	movwf	___flmul@a+2
  5237  0548  0853               	movf	roundf@u+1,w
  5238  0549  00AB               	movwf	___flmul@a+1
  5239  054A  0852               	movf	roundf@u,w
  5240  054B  00AA               	movwf	___flmul@a
  5241  054C  3180  2031  3184   	fcall	___flmul
  5242  054F  0140               	movlb	0	; select bank0
  5243  0550  0829               	movf	?___flmul+3,w
  5244  0551  00C3               	movwf	?_roundf+3
  5245  0552  0828               	movf	?___flmul+2,w
  5246  0553  00C2               	movwf	?_roundf+2
  5247  0554  0827               	movf	?___flmul+1,w
  5248  0555  00C1               	movwf	?_roundf+1
  5249  0556  0826               	movf	?___flmul,w
  5250  0557  00C0               	movwf	?_roundf
  5251  0558  2EA1               	goto	l828
  5252  0559                     l2574:
  5253  0559  304B               	movlw	75
  5254  055A  00F4               	movwf	___fladd@b+3
  5255  055B  3000               	movlw	0
  5256  055C  00F3               	movwf	___fladd@b+2
  5257  055D  3000               	movlw	0
  5258  055E  00F2               	movwf	___fladd@b+1
  5259  055F  3000               	movlw	0
  5260  0560  00F1               	movwf	___fladd@b
  5261  0561  0140               	movlb	0	; select bank0
  5262  0562  0843               	movf	roundf@x+3,w
  5263  0563  00F8               	movwf	___fladd@a+3
  5264  0564  0842               	movf	roundf@x+2,w
  5265  0565  00F7               	movwf	___fladd@a+2
  5266  0566  0841               	movf	roundf@x+1,w
  5267  0567  00F6               	movwf	___fladd@a+1
  5268  0568  0840               	movf	roundf@x,w
  5269  0569  00F5               	movwf	___fladd@a
  5270  056A  3182  2288  3184   	fcall	___fladd
  5271  056D  0874               	movf	?___fladd+3,w
  5272  056E  0140               	movlb	0	; select bank0
  5273  056F  00D1               	movwf	_roundf$1394+3
  5274  0570  0873               	movf	?___fladd+2,w
  5275  0571  00D0               	movwf	_roundf$1394+2
  5276  0572  0872               	movf	?___fladd+1,w
  5277  0573  00CF               	movwf	_roundf$1394+1
  5278  0574  0871               	movf	?___fladd,w
  5279  0575  00CE               	movwf	_roundf$1394
  5280  0576  30CB               	movlw	203
  5281  0577  00F4               	movwf	___fladd@b+3
  5282  0578  3000               	movlw	0
  5283  0579  00F3               	movwf	___fladd@b+2
  5284  057A  3000               	movlw	0
  5285  057B  00F2               	movwf	___fladd@b+1
  5286  057C  3000               	movlw	0
  5287  057D  00F1               	movwf	___fladd@b
  5288  057E  0851               	movf	_roundf$1394+3,w
  5289  057F  00F8               	movwf	___fladd@a+3
  5290  0580  0850               	movf	_roundf$1394+2,w
  5291  0581  00F7               	movwf	___fladd@a+2
  5292  0582  084F               	movf	_roundf$1394+1,w
  5293  0583  00F6               	movwf	___fladd@a+1
  5294  0584  084E               	movf	_roundf$1394,w
  5295  0585  00F5               	movwf	___fladd@a
  5296  0586  3182  2288  3184   	fcall	___fladd
  5297  0589  0874               	movf	?___fladd+3,w
  5298  058A  0140               	movlb	0	; select bank0
  5299  058B  00CB               	movwf	_roundf$1395+3
  5300  058C  0873               	movf	?___fladd+2,w
  5301  058D  00CA               	movwf	_roundf$1395+2
  5302  058E  0872               	movf	?___fladd+1,w
  5303  058F  00C9               	movwf	_roundf$1395+1
  5304  0590  0871               	movf	?___fladd,w
  5305  0591  00C8               	movwf	_roundf$1395
  5306  0592  0843               	movf	roundf@x+3,w
  5307  0593  00AB               	movwf	___flsub@a+3
  5308  0594  0842               	movf	roundf@x+2,w
  5309  0595  00AA               	movwf	___flsub@a+2
  5310  0596  0841               	movf	roundf@x+1,w
  5311  0597  00A9               	movwf	___flsub@a+1
  5312  0598  0840               	movf	roundf@x,w
  5313  0599  00A8               	movwf	___flsub@a
  5314  059A  084B               	movf	_roundf$1395+3,w
  5315  059B  00AF               	movwf	___flsub@b+3
  5316  059C  084A               	movf	_roundf$1395+2,w
  5317  059D  00AE               	movwf	___flsub@b+2
  5318  059E  0849               	movf	_roundf$1395+1,w
  5319  059F  00AD               	movwf	___flsub@b+1
  5320  05A0  0848               	movf	_roundf$1395,w
  5321  05A1  00AC               	movwf	___flsub@b
  5322  05A2  3195  25DA  3184   	fcall	___flsub
  5323  05A5  0140               	movlb	0	; select bank0
  5324  05A6  082B               	movf	?___flsub+3,w
  5325  05A7  00D9               	movwf	roundf@y+3
  5326  05A8  082A               	movf	?___flsub+2,w
  5327  05A9  00D8               	movwf	roundf@y+2
  5328  05AA  0829               	movf	?___flsub+1,w
  5329  05AB  00D7               	movwf	roundf@y+1
  5330  05AC  0828               	movf	?___flsub,w
  5331  05AD  00D6               	movwf	roundf@y
  5332  05AE  303F               	movlw	63
  5333  05AF  00F4               	movwf	___flge@ff1+3
  5334  05B0  3000               	movlw	0
  5335  05B1  00F3               	movwf	___flge@ff1+2
  5336  05B2  3000               	movlw	0
  5337  05B3  00F2               	movwf	___flge@ff1+1
  5338  05B4  3000               	movlw	0
  5339  05B5  00F1               	movwf	___flge@ff1
  5340  05B6  0859               	movf	roundf@y+3,w
  5341  05B7  00F8               	movwf	___flge@ff2+3
  5342  05B8  0858               	movf	roundf@y+2,w
  5343  05B9  00F7               	movwf	___flge@ff2+2
  5344  05BA  0857               	movf	roundf@y+1,w
  5345  05BB  00F6               	movwf	___flge@ff2+1
  5346  05BC  0856               	movf	roundf@y,w
  5347  05BD  00F5               	movwf	___flge@ff2
  5348  05BE  3188  2031  3184   	fcall	___flge
  5349  05C1  1803               	btfsc	3,0
  5350  05C2  2DC4               	goto	u3661
  5351  05C3  2DC5               	goto	u3660
  5352  05C4                     u3661:
  5353  05C4  2DFF               	goto	l2578
  5354  05C5                     u3660:
  5355  05C5                     l2576:
  5356  05C5  0140               	movlb	0	; select bank0
  5357  05C6  0843               	movf	roundf@x+3,w
  5358  05C7  00F4               	movwf	___fladd@b+3
  5359  05C8  0842               	movf	roundf@x+2,w
  5360  05C9  00F3               	movwf	___fladd@b+2
  5361  05CA  0841               	movf	roundf@x+1,w
  5362  05CB  00F2               	movwf	___fladd@b+1
  5363  05CC  0840               	movf	roundf@x,w
  5364  05CD  00F1               	movwf	___fladd@b
  5365  05CE  0859               	movf	roundf@y+3,w
  5366  05CF  00F8               	movwf	___fladd@a+3
  5367  05D0  0858               	movf	roundf@y+2,w
  5368  05D1  00F7               	movwf	___fladd@a+2
  5369  05D2  0857               	movf	roundf@y+1,w
  5370  05D3  00F6               	movwf	___fladd@a+1
  5371  05D4  0856               	movf	roundf@y,w
  5372  05D5  00F5               	movwf	___fladd@a
  5373  05D6  3182  2288  3184   	fcall	___fladd
  5374  05D9  0874               	movf	?___fladd+3,w
  5375  05DA  0140               	movlb	0	; select bank0
  5376  05DB  00D1               	movwf	_roundf$1394+3
  5377  05DC  0873               	movf	?___fladd+2,w
  5378  05DD  00D0               	movwf	_roundf$1394+2
  5379  05DE  0872               	movf	?___fladd+1,w
  5380  05DF  00CF               	movwf	_roundf$1394+1
  5381  05E0  0871               	movf	?___fladd,w
  5382  05E1  00CE               	movwf	_roundf$1394
  5383  05E2  30BF               	movlw	191
  5384  05E3  00F4               	movwf	___fladd@b+3
  5385  05E4  3080               	movlw	128
  5386  05E5  00F3               	movwf	___fladd@b+2
  5387  05E6  3000               	movlw	0
  5388  05E7  00F2               	movwf	___fladd@b+1
  5389  05E8  3000               	movlw	0
  5390  05E9  00F1               	movwf	___fladd@b
  5391  05EA  0851               	movf	_roundf$1394+3,w
  5392  05EB  00F8               	movwf	___fladd@a+3
  5393  05EC  0850               	movf	_roundf$1394+2,w
  5394  05ED  00F7               	movwf	___fladd@a+2
  5395  05EE  084F               	movf	_roundf$1394+1,w
  5396  05EF  00F6               	movwf	___fladd@a+1
  5397  05F0  084E               	movf	_roundf$1394,w
  5398  05F1  00F5               	movwf	___fladd@a
  5399  05F2  3182  2288  3184   	fcall	___fladd
  5400  05F5  0874               	movf	?___fladd+3,w
  5401  05F6  0140               	movlb	0	; select bank0
  5402  05F7  00D9               	movwf	roundf@y+3
  5403  05F8  0873               	movf	?___fladd+2,w
  5404  05F9  00D8               	movwf	roundf@y+2
  5405  05FA  0872               	movf	?___fladd+1,w
  5406  05FB  00D7               	movwf	roundf@y+1
  5407  05FC  0871               	movf	?___fladd,w
  5408  05FD  00D6               	movwf	roundf@y
  5409  05FE  2E6E               	goto	l2584
  5410  05FF                     l2578:
  5411  05FF  30BF               	movlw	191
  5412  0600  00F4               	movwf	___flge@ff1+3
  5413  0601  3000               	movlw	0
  5414  0602  00F3               	movwf	___flge@ff1+2
  5415  0603  3000               	movlw	0
  5416  0604  00F2               	movwf	___flge@ff1+1
  5417  0605  3000               	movlw	0
  5418  0606  00F1               	movwf	___flge@ff1
  5419  0607  0140               	movlb	0	; select bank0
  5420  0608  0859               	movf	roundf@y+3,w
  5421  0609  00F8               	movwf	___flge@ff2+3
  5422  060A  0858               	movf	roundf@y+2,w
  5423  060B  00F7               	movwf	___flge@ff2+2
  5424  060C  0857               	movf	roundf@y+1,w
  5425  060D  00F6               	movwf	___flge@ff2+1
  5426  060E  0856               	movf	roundf@y,w
  5427  060F  00F5               	movwf	___flge@ff2
  5428  0610  3188  2031  3184   	fcall	___flge
  5429  0613  1C03               	btfss	3,0
  5430  0614  2E16               	goto	u3671
  5431  0615  2E17               	goto	u3670
  5432  0616                     u3671:
  5433  0616  2E51               	goto	l2582
  5434  0617                     u3670:
  5435  0617                     l2580:
  5436  0617  0140               	movlb	0	; select bank0
  5437  0618  0843               	movf	roundf@x+3,w
  5438  0619  00F4               	movwf	___fladd@b+3
  5439  061A  0842               	movf	roundf@x+2,w
  5440  061B  00F3               	movwf	___fladd@b+2
  5441  061C  0841               	movf	roundf@x+1,w
  5442  061D  00F2               	movwf	___fladd@b+1
  5443  061E  0840               	movf	roundf@x,w
  5444  061F  00F1               	movwf	___fladd@b
  5445  0620  0859               	movf	roundf@y+3,w
  5446  0621  00F8               	movwf	___fladd@a+3
  5447  0622  0858               	movf	roundf@y+2,w
  5448  0623  00F7               	movwf	___fladd@a+2
  5449  0624  0857               	movf	roundf@y+1,w
  5450  0625  00F6               	movwf	___fladd@a+1
  5451  0626  0856               	movf	roundf@y,w
  5452  0627  00F5               	movwf	___fladd@a
  5453  0628  3182  2288  3184   	fcall	___fladd
  5454  062B  0874               	movf	?___fladd+3,w
  5455  062C  0140               	movlb	0	; select bank0
  5456  062D  00D1               	movwf	_roundf$1394+3
  5457  062E  0873               	movf	?___fladd+2,w
  5458  062F  00D0               	movwf	_roundf$1394+2
  5459  0630  0872               	movf	?___fladd+1,w
  5460  0631  00CF               	movwf	_roundf$1394+1
  5461  0632  0871               	movf	?___fladd,w
  5462  0633  00CE               	movwf	_roundf$1394
  5463  0634  303F               	movlw	63
  5464  0635  00F4               	movwf	___fladd@b+3
  5465  0636  3080               	movlw	128
  5466  0637  00F3               	movwf	___fladd@b+2
  5467  0638  3000               	movlw	0
  5468  0639  00F2               	movwf	___fladd@b+1
  5469  063A  3000               	movlw	0
  5470  063B  00F1               	movwf	___fladd@b
  5471  063C  0851               	movf	_roundf$1394+3,w
  5472  063D  00F8               	movwf	___fladd@a+3
  5473  063E  0850               	movf	_roundf$1394+2,w
  5474  063F  00F7               	movwf	___fladd@a+2
  5475  0640  084F               	movf	_roundf$1394+1,w
  5476  0641  00F6               	movwf	___fladd@a+1
  5477  0642  084E               	movf	_roundf$1394,w
  5478  0643  00F5               	movwf	___fladd@a
  5479  0644  3182  2288  3184   	fcall	___fladd
  5480  0647  0874               	movf	?___fladd+3,w
  5481  0648  0140               	movlb	0	; select bank0
  5482  0649  00D9               	movwf	roundf@y+3
  5483  064A  0873               	movf	?___fladd+2,w
  5484  064B  00D8               	movwf	roundf@y+2
  5485  064C  0872               	movf	?___fladd+1,w
  5486  064D  00D7               	movwf	roundf@y+1
  5487  064E  0871               	movf	?___fladd,w
  5488  064F  00D6               	movwf	roundf@y
  5489  0650  2E6E               	goto	l2584
  5490  0651                     l2582:
  5491  0651  0140               	movlb	0	; select bank0
  5492  0652  0843               	movf	roundf@x+3,w
  5493  0653  00F4               	movwf	___fladd@b+3
  5494  0654  0842               	movf	roundf@x+2,w
  5495  0655  00F3               	movwf	___fladd@b+2
  5496  0656  0841               	movf	roundf@x+1,w
  5497  0657  00F2               	movwf	___fladd@b+1
  5498  0658  0840               	movf	roundf@x,w
  5499  0659  00F1               	movwf	___fladd@b
  5500  065A  0859               	movf	roundf@y+3,w
  5501  065B  00F8               	movwf	___fladd@a+3
  5502  065C  0858               	movf	roundf@y+2,w
  5503  065D  00F7               	movwf	___fladd@a+2
  5504  065E  0857               	movf	roundf@y+1,w
  5505  065F  00F6               	movwf	___fladd@a+1
  5506  0660  0856               	movf	roundf@y,w
  5507  0661  00F5               	movwf	___fladd@a
  5508  0662  3182  2288  3184   	fcall	___fladd
  5509  0665  0874               	movf	?___fladd+3,w
  5510  0666  0140               	movlb	0	; select bank0
  5511  0667  00D9               	movwf	roundf@y+3
  5512  0668  0873               	movf	?___fladd+2,w
  5513  0669  00D8               	movwf	roundf@y+2
  5514  066A  0872               	movf	?___fladd+1,w
  5515  066B  00D7               	movwf	roundf@y+1
  5516  066C  0871               	movf	?___fladd,w
  5517  066D  00D6               	movwf	roundf@y
  5518  066E                     l2584:
  5519  066E  0852               	movf	roundf@u,w
  5520  066F  00C4               	movwf	??_roundf
  5521  0670  0853               	movf	roundf@u+1,w
  5522  0671  00C5               	movwf	??_roundf+1
  5523  0672  0854               	movf	roundf@u+2,w
  5524  0673  00C6               	movwf	??_roundf+2
  5525  0674  0855               	movf	roundf@u+3,w
  5526  0675  00C7               	movwf	??_roundf+3
  5527  0676  301F               	movlw	31
  5528  0677                     u3685:
  5529  0677  36C7               	lsrf	??_roundf+3,f
  5530  0678  0CC6               	rrf	??_roundf+2,f
  5531  0679  0CC5               	rrf	??_roundf+1,f
  5532  067A  0CC4               	rrf	??_roundf,f
  5533  067B                     u3680:
  5534  067B  0B89               	decfsz	9,f
  5535  067C  2E77               	goto	u3685
  5536  067D  0847               	movf	??_roundf+3,w
  5537  067E  0446               	iorwf	??_roundf+2,w
  5538  067F  0445               	iorwf	??_roundf+1,w
  5539  0680  0444               	iorwf	??_roundf,w
  5540  0681  1903               	skipnz
  5541  0682  2E84               	goto	u3691
  5542  0683  2E85               	goto	u3690
  5543  0684                     u3691:
  5544  0684  2E99               	goto	l2588
  5545  0685                     u3690:
  5546  0685                     l2586:
  5547  0685  0859               	movf	roundf@y+3,w
  5548  0686  00F4               	movwf	___flneg@f1+3
  5549  0687  0858               	movf	roundf@y+2,w
  5550  0688  00F3               	movwf	___flneg@f1+2
  5551  0689  0857               	movf	roundf@y+1,w
  5552  068A  00F2               	movwf	___flneg@f1+1
  5553  068B  0856               	movf	roundf@y,w
  5554  068C  00F1               	movwf	___flneg@f1
  5555  068D  3195  2572  3184   	fcall	___flneg
  5556  0690  0874               	movf	?___flneg+3,w
  5557  0691  0140               	movlb	0	; select bank0
  5558  0692  00D9               	movwf	roundf@y+3
  5559  0693  0873               	movf	?___flneg+2,w
  5560  0694  00D8               	movwf	roundf@y+2
  5561  0695  0872               	movf	?___flneg+1,w
  5562  0696  00D7               	movwf	roundf@y+1
  5563  0697  0871               	movf	?___flneg,w
  5564  0698  00D6               	movwf	roundf@y
  5565  0699                     l2588:
  5566  0699  0859               	movf	roundf@y+3,w
  5567  069A  00C3               	movwf	?_roundf+3
  5568  069B  0858               	movf	roundf@y+2,w
  5569  069C  00C2               	movwf	?_roundf+2
  5570  069D  0857               	movf	roundf@y+1,w
  5571  069E  00C1               	movwf	?_roundf+1
  5572  069F  0856               	movf	roundf@y,w
  5573  06A0  00C0               	movwf	?_roundf
  5574  06A1                     l828:
  5575  06A1  0008               	return
  5576  06A2                     __end_of_roundf:
  5577                           
  5578                           	psect	text19
  5579  15DA                     __ptext19:	
  5580 ;; *************** function ___flsub *****************
  5581 ;; Defined at:
  5582 ;;		line 242 in file "C:\Program Files\Microchip\xc8\v2.32\pic\sources\c99\common\sprcadd.c"
  5583 ;; Parameters:    Size  Location     Type
  5584 ;;  a               4    8[BANK0 ] float 
  5585 ;;  b               4   12[BANK0 ] float 
  5586 ;; Auto vars:     Size  Location     Type
  5587 ;;		None
  5588 ;; Return value:  Size  Location     Type
  5589 ;;                  4    8[BANK0 ] float 
  5590 ;; Registers used:
  5591 ;;		wreg, status,2, status,0, pclath, cstack
  5592 ;; Tracked objects:
  5593 ;;		On entry : 0/0
  5594 ;;		On exit  : 0/0
  5595 ;;		Unchanged: 0/0
  5596 ;; Data sizes:     COMMON   BANK0   BANK1   BANK2   BANK3   BANK4   BANK5   BANK6   BANK7   BANK8   BANK9  BANK10  BANK1
      +1  BANK12  BANK13  BANK14  BANK15  BANK16  BANK17  BANK18  BANK19  BANK20  BANK21  BANK22  BANK23  BANK24  BANK25
  5597 ;;      Params:         0       8       0       0       0       0       0       0       0       0       0       0       
      +0       0       0       0       0       0       0       0       0       0       0       0       0       0       0
  5598 ;;      Locals:         0       0       0       0       0       0       0       0       0       0       0       0       
      +0       0       0       0       0       0       0       0       0       0       0       0       0       0       0
  5599 ;;      Temps:          0       0       0       0       0       0       0       0       0       0       0       0       
      +0       0       0       0       0       0       0       0       0       0       0       0       0       0       0
  5600 ;;      Totals:         0       8       0       0       0       0       0       0       0       0       0       0       
      +0       0       0       0       0       0       0       0       0       0       0       0       0       0       0
  5601 ;;Total ram usage:        8 bytes
  5602 ;; Hardware stack levels used: 1
  5603 ;; Hardware stack levels required when called: 2
  5604 ;; This function calls:
  5605 ;;		___fladd
  5606 ;; This function is called by:
  5607 ;;		_roundf
  5608 ;; This function uses a non-reentrant model
  5609 ;;
  5610                           
  5611                           
  5612                           ;psect for function ___flsub
  5613  15DA                     ___flsub:
  5614  15DA                     l2318:	
  5615                           ;incstack = 0
  5616                           ; Regs used in ___flsub: [wreg+status,2+status,0+pclath+cstack]
  5617                           
  5618  15DA  3080               	movlw	128
  5619  15DB  0140               	movlb	0	; select bank0
  5620  15DC  06AB               	xorwf	___flsub@a+3,f
  5621  15DD                     l2320:
  5622  15DD  082F               	movf	___flsub@b+3,w
  5623  15DE  00F4               	movwf	___fladd@b+3
  5624  15DF  082E               	movf	___flsub@b+2,w
  5625  15E0  00F3               	movwf	___fladd@b+2
  5626  15E1  082D               	movf	___flsub@b+1,w
  5627  15E2  00F2               	movwf	___fladd@b+1
  5628  15E3  082C               	movf	___flsub@b,w
  5629  15E4  00F1               	movwf	___fladd@b
  5630  15E5  082B               	movf	___flsub@a+3,w
  5631  15E6  00F8               	movwf	___fladd@a+3
  5632  15E7  082A               	movf	___flsub@a+2,w
  5633  15E8  00F7               	movwf	___fladd@a+2
  5634  15E9  0829               	movf	___flsub@a+1,w
  5635  15EA  00F6               	movwf	___fladd@a+1
  5636  15EB  0828               	movf	___flsub@a,w
  5637  15EC  00F5               	movwf	___fladd@a
  5638  15ED  3182  2288  3195   	fcall	___fladd
  5639  15F0  0874               	movf	?___fladd+3,w
  5640  15F1  0140               	movlb	0	; select bank0
  5641  15F2  00AB               	movwf	?___flsub+3
  5642  15F3  0873               	movf	?___fladd+2,w
  5643  15F4  00AA               	movwf	?___flsub+2
  5644  15F5  0872               	movf	?___fladd+1,w
  5645  15F6  00A9               	movwf	?___flsub+1
  5646  15F7  0871               	movf	?___fladd,w
  5647  15F8  00A8               	movwf	?___flsub
  5648  15F9                     l595:
  5649  15F9  0008               	return
  5650  15FA                     __end_of___flsub:
  5651                           
  5652                           	psect	text20
  5653  0288                     __ptext20:	
  5654 ;; *************** function ___fladd *****************
  5655 ;; Defined at:
  5656 ;;		line 10 in file "C:\Program Files\Microchip\xc8\v2.32\pic\sources\c99\common\sprcadd.c"
  5657 ;; Parameters:    Size  Location     Type
  5658 ;;  b               4    1[COMMON] float 
  5659 ;;  a               4    5[COMMON] float 
  5660 ;; Auto vars:     Size  Location     Type
  5661 ;;  grs             1   12[COMMON] unsigned char 
  5662 ;;  bexp            1   11[COMMON] unsigned char 
  5663 ;;  aexp            1   10[COMMON] unsigned char 
  5664 ;;  signs           1    9[COMMON] unsigned char 
  5665 ;; Return value:  Size  Location     Type
  5666 ;;                  4    1[COMMON] unsigned char 
  5667 ;; Registers used:
  5668 ;;		wreg, status,2, status,0
  5669 ;; Tracked objects:
  5670 ;;		On entry : 0/0
  5671 ;;		On exit  : 0/0
  5672 ;;		Unchanged: 0/0
  5673 ;; Data sizes:     COMMON   BANK0   BANK1   BANK2   BANK3   BANK4   BANK5   BANK6   BANK7   BANK8   BANK9  BANK10  BANK1
      +1  BANK12  BANK13  BANK14  BANK15  BANK16  BANK17  BANK18  BANK19  BANK20  BANK21  BANK22  BANK23  BANK24  BANK25
  5674 ;;      Params:         8       0       0       0       0       0       0       0       0       0       0       0       
      +0       0       0       0       0       0       0       0       0       0       0       0       0       0       0
  5675 ;;      Locals:         4       0       0       0       0       0       0       0       0       0       0       0       
      +0       0       0       0       0       0       0       0       0       0       0       0       0       0       0
  5676 ;;      Temps:          0       8       0       0       0       0       0       0       0       0       0       0       
      +0       0       0       0       0       0       0       0       0       0       0       0       0       0       0
  5677 ;;      Totals:        12       8       0       0       0       0       0       0       0       0       0       0       
      +0       0       0       0       0       0       0       0       0       0       0       0       0       0       0
  5678 ;;Total ram usage:       20 bytes
  5679 ;; Hardware stack levels used: 1
  5680 ;; Hardware stack levels required when called: 1
  5681 ;; This function calls:
  5682 ;;		Nothing
  5683 ;; This function is called by:
  5684 ;;		___flsub
  5685 ;;		_roundf
  5686 ;; This function uses a non-reentrant model
  5687 ;;
  5688                           
  5689                           
  5690                           ;psect for function ___fladd
  5691  0288                     ___fladd:
  5692  0288                     l2002:	
  5693                           ;incstack = 0
  5694                           ; Regs used in ___fladd: [wreg+status,2+status,0]
  5695                           
  5696  0288  0874               	movf	___fladd@b+3,w
  5697  0289  3980               	andlw	128
  5698  028A  0140               	movlb	0	; select bank0
  5699  028B  00A0               	movwf	??___fladd
  5700  028C  0820               	movf	??___fladd,w
  5701  028D  00F9               	movwf	___fladd@signs
  5702  028E                     l2004:
  5703  028E  3574               	lslf	___fladd@b+3,w
  5704  028F  00A0               	movwf	??___fladd
  5705  0290  0820               	movf	??___fladd,w
  5706  0291  00FB               	movwf	___fladd@bexp
  5707  0292                     l2006:
  5708  0292  1FF3               	btfss	___fladd@b+2,7
  5709  0293  2A95               	goto	u2461
  5710  0294  2A96               	goto	u2460
  5711  0295                     u2461:
  5712  0295  2A97               	goto	l2010
  5713  0296                     u2460:
  5714  0296                     l2008:
  5715  0296  147B               	bsf	___fladd@bexp,0
  5716  0297                     l2010:
  5717  0297  087B               	movf	___fladd@bexp,w
  5718  0298  1903               	btfsc	3,2
  5719  0299  2A9B               	goto	u2471
  5720  029A  2A9C               	goto	u2470
  5721  029B                     u2471:
  5722  029B  2AAC               	goto	l2020
  5723  029C                     u2470:
  5724  029C                     l2012:
  5725  029C  0A7B               	incf	___fladd@bexp,w
  5726  029D  1D03               	btfss	3,2
  5727  029E  2AA0               	goto	u2481
  5728  029F  2AA1               	goto	u2480
  5729  02A0                     u2481:
  5730  02A0  2AA9               	goto	l2016
  5731  02A1                     u2480:
  5732  02A1                     l2014:
  5733  02A1  3000               	movlw	0
  5734  02A2  00F4               	movwf	___fladd@b+3
  5735  02A3  3000               	movlw	0
  5736  02A4  00F3               	movwf	___fladd@b+2
  5737  02A5  3000               	movlw	0
  5738  02A6  00F2               	movwf	___fladd@b+1
  5739  02A7  3000               	movlw	0
  5740  02A8  00F1               	movwf	___fladd@b
  5741  02A9                     l2016:
  5742  02A9  17F3               	bsf	___fladd@b+2,7
  5743  02AA                     l2018:
  5744  02AA  01F4               	clrf	___fladd@b+3
  5745  02AB  2AB4               	goto	l2022
  5746  02AC                     l2020:
  5747  02AC  3000               	movlw	0
  5748  02AD  00F4               	movwf	___fladd@b+3
  5749  02AE  3000               	movlw	0
  5750  02AF  00F3               	movwf	___fladd@b+2
  5751  02B0  3000               	movlw	0
  5752  02B1  00F2               	movwf	___fladd@b+1
  5753  02B2  3000               	movlw	0
  5754  02B3  00F1               	movwf	___fladd@b
  5755  02B4                     l2022:
  5756  02B4  0878               	movf	___fladd@a+3,w
  5757  02B5  3980               	andlw	128
  5758  02B6  00A0               	movwf	??___fladd
  5759  02B7  0820               	movf	??___fladd,w
  5760  02B8  00FA               	movwf	___fladd@aexp
  5761  02B9                     l2024:
  5762  02B9  087A               	movf	___fladd@aexp,w
  5763  02BA  0679               	xorwf	___fladd@signs,w
  5764  02BB  1903               	skipnz
  5765  02BC  2ABE               	goto	u2491
  5766  02BD  2ABF               	goto	u2490
  5767  02BE                     u2491:
  5768  02BE  2AC0               	goto	l2028
  5769  02BF                     u2490:
  5770  02BF                     l2026:
  5771  02BF  1779               	bsf	___fladd@signs,6
  5772  02C0                     l2028:
  5773  02C0  3578               	lslf	___fladd@a+3,w
  5774  02C1  00A0               	movwf	??___fladd
  5775  02C2  0820               	movf	??___fladd,w
  5776  02C3  00FA               	movwf	___fladd@aexp
  5777  02C4                     l2030:
  5778  02C4  1FF7               	btfss	___fladd@a+2,7
  5779  02C5  2AC7               	goto	u2501
  5780  02C6  2AC8               	goto	u2500
  5781  02C7                     u2501:
  5782  02C7  2AC9               	goto	l2034
  5783  02C8                     u2500:
  5784  02C8                     l2032:
  5785  02C8  147A               	bsf	___fladd@aexp,0
  5786  02C9                     l2034:
  5787  02C9  087A               	movf	___fladd@aexp,w
  5788  02CA  1903               	btfsc	3,2
  5789  02CB  2ACD               	goto	u2511
  5790  02CC  2ACE               	goto	u2510
  5791  02CD                     u2511:
  5792  02CD  2ADE               	goto	l2044
  5793  02CE                     u2510:
  5794  02CE                     l2036:
  5795  02CE  0A7A               	incf	___fladd@aexp,w
  5796  02CF  1D03               	btfss	3,2
  5797  02D0  2AD2               	goto	u2521
  5798  02D1  2AD3               	goto	u2520
  5799  02D2                     u2521:
  5800  02D2  2ADB               	goto	l2040
  5801  02D3                     u2520:
  5802  02D3                     l2038:
  5803  02D3  3000               	movlw	0
  5804  02D4  00F8               	movwf	___fladd@a+3
  5805  02D5  3000               	movlw	0
  5806  02D6  00F7               	movwf	___fladd@a+2
  5807  02D7  3000               	movlw	0
  5808  02D8  00F6               	movwf	___fladd@a+1
  5809  02D9  3000               	movlw	0
  5810  02DA  00F5               	movwf	___fladd@a
  5811  02DB                     l2040:
  5812  02DB  17F7               	bsf	___fladd@a+2,7
  5813  02DC                     l2042:
  5814  02DC  01F8               	clrf	___fladd@a+3
  5815  02DD  2AE6               	goto	l549
  5816  02DE                     l2044:
  5817  02DE  3000               	movlw	0
  5818  02DF  00F8               	movwf	___fladd@a+3
  5819  02E0  3000               	movlw	0
  5820  02E1  00F7               	movwf	___fladd@a+2
  5821  02E2  3000               	movlw	0
  5822  02E3  00F6               	movwf	___fladd@a+1
  5823  02E4  3000               	movlw	0
  5824  02E5  00F5               	movwf	___fladd@a
  5825  02E6                     l549:
  5826  02E6  087B               	movf	___fladd@bexp,w
  5827  02E7  027A               	subwf	___fladd@aexp,w
  5828  02E8  1803               	skipnc
  5829  02E9  2AEB               	goto	u2531
  5830  02EA  2AEC               	goto	u2530
  5831  02EB                     u2531:
  5832  02EB  2B30               	goto	l2080
  5833  02EC                     u2530:
  5834  02EC                     l2046:
  5835  02EC  1F79               	btfss	___fladd@signs,6
  5836  02ED  2AEF               	goto	u2541
  5837  02EE  2AF0               	goto	u2540
  5838  02EF                     u2541:
  5839  02EF  2AF4               	goto	l2050
  5840  02F0                     u2540:
  5841  02F0                     l2048:
  5842  02F0  3080               	movlw	128
  5843  02F1  00A0               	movwf	??___fladd
  5844  02F2  0820               	movf	??___fladd,w
  5845  02F3  06F9               	xorwf	___fladd@signs,f
  5846  02F4                     l2050:
  5847  02F4  087B               	movf	___fladd@bexp,w
  5848  02F5  00A0               	movwf	??___fladd
  5849  02F6  0820               	movf	??___fladd,w
  5850  02F7  00FC               	movwf	___fladd@grs
  5851  02F8                     l2052:
  5852  02F8  087A               	movf	___fladd@aexp,w
  5853  02F9  00A0               	movwf	??___fladd
  5854  02FA  0820               	movf	??___fladd,w
  5855  02FB  00FB               	movwf	___fladd@bexp
  5856  02FC                     l2054:
  5857  02FC  087C               	movf	___fladd@grs,w
  5858  02FD  00A0               	movwf	??___fladd
  5859  02FE  0820               	movf	??___fladd,w
  5860  02FF  00FA               	movwf	___fladd@aexp
  5861  0300                     l2056:
  5862  0300  0871               	movf	___fladd@b,w
  5863  0301  00A0               	movwf	??___fladd
  5864  0302  0820               	movf	??___fladd,w
  5865  0303  00FC               	movwf	___fladd@grs
  5866  0304                     l2058:
  5867  0304  0875               	movf	___fladd@a,w
  5868  0305  00A0               	movwf	??___fladd
  5869  0306  0820               	movf	??___fladd,w
  5870  0307  00F1               	movwf	___fladd@b
  5871  0308                     l2060:
  5872  0308  087C               	movf	___fladd@grs,w
  5873  0309  00A0               	movwf	??___fladd
  5874  030A  0820               	movf	??___fladd,w
  5875  030B  00F5               	movwf	___fladd@a
  5876  030C                     l2062:
  5877  030C  0872               	movf	___fladd@b+1,w
  5878  030D  00A0               	movwf	??___fladd
  5879  030E  0820               	movf	??___fladd,w
  5880  030F  00FC               	movwf	___fladd@grs
  5881  0310                     l2064:
  5882  0310  0876               	movf	___fladd@a+1,w
  5883  0311  00A0               	movwf	??___fladd
  5884  0312  0820               	movf	??___fladd,w
  5885  0313  00F2               	movwf	___fladd@b+1
  5886  0314                     l2066:
  5887  0314  087C               	movf	___fladd@grs,w
  5888  0315  00A0               	movwf	??___fladd
  5889  0316  0820               	movf	??___fladd,w
  5890  0317  00F6               	movwf	___fladd@a+1
  5891  0318                     l2068:
  5892  0318  0873               	movf	___fladd@b+2,w
  5893  0319  00A0               	movwf	??___fladd
  5894  031A  0820               	movf	??___fladd,w
  5895  031B  00FC               	movwf	___fladd@grs
  5896  031C                     l2070:
  5897  031C  0877               	movf	___fladd@a+2,w
  5898  031D  00A0               	movwf	??___fladd
  5899  031E  0820               	movf	??___fladd,w
  5900  031F  00F3               	movwf	___fladd@b+2
  5901  0320                     l2072:
  5902  0320  087C               	movf	___fladd@grs,w
  5903  0321  00A0               	movwf	??___fladd
  5904  0322  0820               	movf	??___fladd,w
  5905  0323  00F7               	movwf	___fladd@a+2
  5906  0324                     l2074:
  5907  0324  0874               	movf	___fladd@b+3,w
  5908  0325  00A0               	movwf	??___fladd
  5909  0326  0820               	movf	??___fladd,w
  5910  0327  00FC               	movwf	___fladd@grs
  5911  0328                     l2076:
  5912  0328  0878               	movf	___fladd@a+3,w
  5913  0329  00A0               	movwf	??___fladd
  5914  032A  0820               	movf	??___fladd,w
  5915  032B  00F4               	movwf	___fladd@b+3
  5916  032C                     l2078:
  5917  032C  087C               	movf	___fladd@grs,w
  5918  032D  00A0               	movwf	??___fladd
  5919  032E  0820               	movf	??___fladd,w
  5920  032F  00F8               	movwf	___fladd@a+3
  5921  0330                     l2080:
  5922  0330  01FC               	clrf	___fladd@grs
  5923  0331                     l2082:
  5924  0331  087A               	movf	___fladd@aexp,w
  5925  0332  00A0               	movwf	??___fladd
  5926  0333  01A1               	clrf	??___fladd+1
  5927  0334  0821               	movf	??___fladd+1,w
  5928  0335  00A3               	movwf	??___fladd+3
  5929  0336  087B               	movf	___fladd@bexp,w
  5930  0337  0220               	subwf	??___fladd,w
  5931  0338  00A2               	movwf	??___fladd+2
  5932  0339  1C03               	skipc
  5933  033A  03A3               	decf	??___fladd+3,f
  5934  033B  0823               	movf	??___fladd+3,w
  5935  033C  3A80               	xorlw	128
  5936  033D  00A4               	movwf	??___fladd+4
  5937  033E  3080               	movlw	128
  5938  033F  0224               	subwf	??___fladd+4,w
  5939  0340  1D03               	skipz
  5940  0341  2B44               	goto	u2555
  5941  0342  301A               	movlw	26
  5942  0343  0222               	subwf	??___fladd+2,w
  5943  0344                     u2555:
  5944  0344  1C03               	skipc
  5945  0345  2B47               	goto	u2551
  5946  0346  2B48               	goto	u2550
  5947  0347                     u2551:
  5948  0347  2B82               	goto	l2098
  5949  0348                     u2550:
  5950  0348                     l2084:
  5951  0348  0874               	movf	___fladd@b+3,w
  5952  0349  0473               	iorwf	___fladd@b+2,w
  5953  034A  0472               	iorwf	___fladd@b+1,w
  5954  034B  0471               	iorwf	___fladd@b,w
  5955  034C  1D03               	skipz
  5956  034D  2B4F               	goto	u2561
  5957  034E  2B51               	goto	u2560
  5958  034F                     u2561:
  5959  034F  3001               	movlw	1
  5960  0350  2B52               	goto	u2570
  5961  0351                     u2560:
  5962  0351  3000               	movlw	0
  5963  0352                     u2570:
  5964  0352  0140               	movlb	0	; select bank0
  5965  0353  00A0               	movwf	??___fladd
  5966  0354  0820               	movf	??___fladd,w
  5967  0355  00FC               	movwf	___fladd@grs
  5968  0356  3000               	movlw	0
  5969  0357  00F4               	movwf	___fladd@b+3
  5970  0358  3000               	movlw	0
  5971  0359  00F3               	movwf	___fladd@b+2
  5972  035A  3000               	movlw	0
  5973  035B  00F2               	movwf	___fladd@b+1
  5974  035C  3000               	movlw	0
  5975  035D  00F1               	movwf	___fladd@b
  5976  035E  087A               	movf	___fladd@aexp,w
  5977  035F  00A0               	movwf	??___fladd
  5978  0360  0820               	movf	??___fladd,w
  5979  0361  00FB               	movwf	___fladd@bexp
  5980  0362  2B88               	goto	l553
  5981  0363                     l555:
  5982  0363  1C7C               	btfss	___fladd@grs,0
  5983  0364  2B66               	goto	u2581
  5984  0365  2B67               	goto	u2580
  5985  0366                     u2581:
  5986  0366  2B6E               	goto	l2088
  5987  0367                     u2580:
  5988  0367                     l2086:
  5989  0367  367C               	lsrf	___fladd@grs,w
  5990  0368  3801               	iorlw	1
  5991  0369  0140               	movlb	0	; select bank0
  5992  036A  00A0               	movwf	??___fladd
  5993  036B  0820               	movf	??___fladd,w
  5994  036C  00FC               	movwf	___fladd@grs
  5995  036D  2B70               	goto	l2090
  5996  036E                     l2088:
  5997  036E  1003               	clrc
  5998  036F  0CFC               	rrf	___fladd@grs,f
  5999  0370                     l2090:
  6000  0370  1C71               	btfss	___fladd@b,0
  6001  0371  2B73               	goto	u2591
  6002  0372  2B74               	goto	u2590
  6003  0373                     u2591:
  6004  0373  2B75               	goto	l2094
  6005  0374                     u2590:
  6006  0374                     l2092:
  6007  0374  17FC               	bsf	___fladd@grs,7
  6008  0375                     l2094:
  6009  0375  3001               	movlw	1
  6010  0376  0140               	movlb	0	; select bank0
  6011  0377  00A0               	movwf	??___fladd
  6012  0378                     u2605:
  6013  0378  37F4               	asrf	___fladd@b+3,f
  6014  0379  0CF3               	rrf	___fladd@b+2,f
  6015  037A  0CF2               	rrf	___fladd@b+1,f
  6016  037B  0CF1               	rrf	___fladd@b,f
  6017  037C  0BA0               	decfsz	??___fladd& (0+127),f
  6018  037D  2B78               	goto	u2605
  6019  037E                     l2096:
  6020  037E  3001               	movlw	1
  6021  037F  00A0               	movwf	??___fladd
  6022  0380  0820               	movf	??___fladd,w
  6023  0381  07FB               	addwf	___fladd@bexp,f
  6024  0382                     l2098:
  6025  0382  087A               	movf	___fladd@aexp,w
  6026  0383  027B               	subwf	___fladd@bexp,w
  6027  0384  1C03               	skipc
  6028  0385  2B87               	goto	u2611
  6029  0386  2B88               	goto	u2610
  6030  0387                     u2611:
  6031  0387  2B63               	goto	l555
  6032  0388                     u2610:
  6033  0388                     l553:
  6034  0388  1B79               	btfsc	___fladd@signs,6
  6035  0389  2B8B               	goto	u2621
  6036  038A  2B8C               	goto	u2620
  6037  038B                     u2621:
  6038  038B  2BC6               	goto	l2124
  6039  038C                     u2620:
  6040  038C                     l2100:
  6041  038C  087B               	movf	___fladd@bexp,w
  6042  038D  1D03               	btfss	3,2
  6043  038E  2B90               	goto	u2631
  6044  038F  2B91               	goto	u2630
  6045  0390                     u2631:
  6046  0390  2B9A               	goto	l2106
  6047  0391                     u2630:
  6048  0391                     l2102:
  6049  0391  3000               	movlw	0
  6050  0392  00F4               	movwf	?___fladd+3
  6051  0393  3000               	movlw	0
  6052  0394  00F3               	movwf	?___fladd+2
  6053  0395  3000               	movlw	0
  6054  0396  00F2               	movwf	?___fladd+1
  6055  0397  3000               	movlw	0
  6056  0398  00F1               	movwf	?___fladd
  6057  0399  2CC6               	goto	l562
  6058  039A                     l2106:
  6059  039A  0875               	movf	___fladd@a,w
  6060  039B  07F1               	addwf	___fladd@b,f
  6061  039C  0876               	movf	___fladd@a+1,w
  6062  039D  3DF2               	addwfc	___fladd@b+1,f
  6063  039E  0877               	movf	___fladd@a+2,w
  6064  039F  3DF3               	addwfc	___fladd@b+2,f
  6065  03A0  0878               	movf	___fladd@a+3,w
  6066  03A1  3DF4               	addwfc	___fladd@b+3,f
  6067  03A2                     l2108:
  6068  03A2  1C74               	btfss	___fladd@b+3,0
  6069  03A3  2BA5               	goto	u2641
  6070  03A4  2BA6               	goto	u2640
  6071  03A5                     u2641:
  6072  03A5  2C53               	goto	l2158
  6073  03A6                     u2640:
  6074  03A6                     l2110:
  6075  03A6  1C7C               	btfss	___fladd@grs,0
  6076  03A7  2BA9               	goto	u2651
  6077  03A8  2BAA               	goto	u2650
  6078  03A9                     u2651:
  6079  03A9  2BB1               	goto	l2114
  6080  03AA                     u2650:
  6081  03AA                     l2112:
  6082  03AA  367C               	lsrf	___fladd@grs,w
  6083  03AB  3801               	iorlw	1
  6084  03AC  0140               	movlb	0	; select bank0
  6085  03AD  00A0               	movwf	??___fladd
  6086  03AE  0820               	movf	??___fladd,w
  6087  03AF  00FC               	movwf	___fladd@grs
  6088  03B0  2BB3               	goto	l2116
  6089  03B1                     l2114:
  6090  03B1  1003               	clrc
  6091  03B2  0CFC               	rrf	___fladd@grs,f
  6092  03B3                     l2116:
  6093  03B3  1C71               	btfss	___fladd@b,0
  6094  03B4  2BB6               	goto	u2661
  6095  03B5  2BB7               	goto	u2660
  6096  03B6                     u2661:
  6097  03B6  2BB8               	goto	l2120
  6098  03B7                     u2660:
  6099  03B7                     l2118:
  6100  03B7  17FC               	bsf	___fladd@grs,7
  6101  03B8                     l2120:
  6102  03B8  3001               	movlw	1
  6103  03B9  0140               	movlb	0	; select bank0
  6104  03BA  00A0               	movwf	??___fladd
  6105  03BB                     u2675:
  6106  03BB  37F4               	asrf	___fladd@b+3,f
  6107  03BC  0CF3               	rrf	___fladd@b+2,f
  6108  03BD  0CF2               	rrf	___fladd@b+1,f
  6109  03BE  0CF1               	rrf	___fladd@b,f
  6110  03BF  0BA0               	decfsz	??___fladd& (0+127),f
  6111  03C0  2BBB               	goto	u2675
  6112  03C1                     l2122:
  6113  03C1  3001               	movlw	1
  6114  03C2  00A0               	movwf	??___fladd
  6115  03C3  0820               	movf	??___fladd,w
  6116  03C4  07FB               	addwf	___fladd@bexp,f
  6117  03C5  2C53               	goto	l2158
  6118  03C6                     l2124:
  6119  03C6  0874               	movf	___fladd@b+3,w
  6120  03C7  3A80               	xorlw	128
  6121  03C8  0140               	movlb	0	; select bank0
  6122  03C9  00A0               	movwf	??___fladd
  6123  03CA  0878               	movf	___fladd@a+3,w
  6124  03CB  3A80               	xorlw	128
  6125  03CC  0220               	subwf	??___fladd,w
  6126  03CD  1D03               	skipz
  6127  03CE  2BD9               	goto	u2683
  6128  03CF  0877               	movf	___fladd@a+2,w
  6129  03D0  0273               	subwf	___fladd@b+2,w
  6130  03D1  1D03               	skipz
  6131  03D2  2BD9               	goto	u2683
  6132  03D3  0876               	movf	___fladd@a+1,w
  6133  03D4  0272               	subwf	___fladd@b+1,w
  6134  03D5  1D03               	skipz
  6135  03D6  2BD9               	goto	u2683
  6136  03D7  0875               	movf	___fladd@a,w
  6137  03D8  0271               	subwf	___fladd@b,w
  6138  03D9                     u2683:
  6139  03D9  1803               	skipnc
  6140  03DA  2BDC               	goto	u2681
  6141  03DB  2BDD               	goto	u2680
  6142  03DC                     u2681:
  6143  03DC  2C15               	goto	l2134
  6144  03DD                     u2680:
  6145  03DD                     l2126:
  6146  03DD  30FF               	movlw	255
  6147  03DE  00A0               	movwf	??___fladd
  6148  03DF  30FF               	movlw	255
  6149  03E0  00A1               	movwf	??___fladd+1
  6150  03E1  30FF               	movlw	255
  6151  03E2  00A2               	movwf	??___fladd+2
  6152  03E3  30FF               	movlw	255
  6153  03E4  00A3               	movwf	??___fladd+3
  6154  03E5  0871               	movf	___fladd@b,w
  6155  03E6  0275               	subwf	___fladd@a,w
  6156  03E7  00A4               	movwf	??___fladd+4
  6157  03E8  0872               	movf	___fladd@b+1,w
  6158  03E9  3B76               	subwfb	___fladd@a+1,w
  6159  03EA  00A5               	movwf	??___fladd+5
  6160  03EB  0873               	movf	___fladd@b+2,w
  6161  03EC  3B77               	subwfb	___fladd@a+2,w
  6162  03ED  00A6               	movwf	??___fladd+6
  6163  03EE  0874               	movf	___fladd@b+3,w
  6164  03EF  3B78               	subwfb	___fladd@a+3,w
  6165  03F0  00A7               	movwf	??___fladd+7
  6166  03F1  0824               	movf	??___fladd+4,w
  6167  03F2  07A0               	addwf	??___fladd,f
  6168  03F3  0825               	movf	??___fladd+5,w
  6169  03F4  3DA1               	addwfc	??___fladd+1,f
  6170  03F5  0826               	movf	??___fladd+6,w
  6171  03F6  3DA2               	addwfc	??___fladd+2,f
  6172  03F7  0827               	movf	??___fladd+7,w
  6173  03F8  3DA3               	addwfc	??___fladd+3,f
  6174  03F9  0823               	movf	??___fladd+3,w
  6175  03FA  00F4               	movwf	___fladd@b+3
  6176  03FB  0822               	movf	??___fladd+2,w
  6177  03FC  00F3               	movwf	___fladd@b+2
  6178  03FD  0821               	movf	??___fladd+1,w
  6179  03FE  00F2               	movwf	___fladd@b+1
  6180  03FF  0820               	movf	??___fladd,w
  6181  0400  00F1               	movwf	___fladd@b
  6182  0401                     l2128:
  6183  0401  3080               	movlw	128
  6184  0402  00A0               	movwf	??___fladd
  6185  0403  0820               	movf	??___fladd,w
  6186  0404  06F9               	xorwf	___fladd@signs,f
  6187  0405  09FC               	comf	___fladd@grs,f
  6188  0406  0AFC               	incf	___fladd@grs,f
  6189  0407                     l2130:
  6190  0407  087C               	movf	___fladd@grs,w
  6191  0408  1D03               	btfss	3,2
  6192  0409  2C0B               	goto	u2691
  6193  040A  2C0C               	goto	u2690
  6194  040B                     u2691:
  6195  040B  2C1D               	goto	l570
  6196  040C                     u2690:
  6197  040C                     l2132:
  6198  040C  3001               	movlw	1
  6199  040D  07F1               	addwf	___fladd@b,f
  6200  040E  3000               	movlw	0
  6201  040F  3DF2               	addwfc	___fladd@b+1,f
  6202  0410  3000               	movlw	0
  6203  0411  3DF3               	addwfc	___fladd@b+2,f
  6204  0412  3000               	movlw	0
  6205  0413  3DF4               	addwfc	___fladd@b+3,f
  6206  0414  2C1D               	goto	l570
  6207  0415                     l2134:
  6208  0415  0875               	movf	___fladd@a,w
  6209  0416  02F1               	subwf	___fladd@b,f
  6210  0417  0876               	movf	___fladd@a+1,w
  6211  0418  3BF2               	subwfb	___fladd@b+1,f
  6212  0419  0877               	movf	___fladd@a+2,w
  6213  041A  3BF3               	subwfb	___fladd@b+2,f
  6214  041B  0878               	movf	___fladd@a+3,w
  6215  041C  3BF4               	subwfb	___fladd@b+3,f
  6216  041D                     l570:
  6217  041D  0874               	movf	___fladd@b+3,w
  6218  041E  0473               	iorwf	___fladd@b+2,w
  6219  041F  0472               	iorwf	___fladd@b+1,w
  6220  0420  0471               	iorwf	___fladd@b,w
  6221  0421  1D03               	skipz
  6222  0422  2C24               	goto	u2701
  6223  0423  2C25               	goto	u2700
  6224  0424                     u2701:
  6225  0424  2C4F               	goto	l2156
  6226  0425                     u2700:
  6227  0425                     l2136:
  6228  0425  087C               	movf	___fladd@grs,w
  6229  0426  1D03               	btfss	3,2
  6230  0427  2C29               	goto	u2711
  6231  0428  2C2A               	goto	u2710
  6232  0429                     u2711:
  6233  0429  2C4F               	goto	l2156
  6234  042A                     u2710:
  6235  042A                     l2138:
  6236  042A  3000               	movlw	0
  6237  042B  00F4               	movwf	?___fladd+3
  6238  042C  3000               	movlw	0
  6239  042D  00F3               	movwf	?___fladd+2
  6240  042E  3000               	movlw	0
  6241  042F  00F2               	movwf	?___fladd+1
  6242  0430  3000               	movlw	0
  6243  0431  00F1               	movwf	?___fladd
  6244  0432  2CC6               	goto	l562
  6245  0433                     l2142:
  6246  0433  3001               	movlw	1
  6247  0434                     u2725:
  6248  0434  35F1               	lslf	___fladd@b,f
  6249  0435  0DF2               	rlf	___fladd@b+1,f
  6250  0436  0DF3               	rlf	___fladd@b+2,f
  6251  0437  0DF4               	rlf	___fladd@b+3,f
  6252  0438  0B89               	decfsz	9,f
  6253  0439  2C34               	goto	u2725
  6254  043A                     l2144:
  6255  043A  1FFC               	btfss	___fladd@grs,7
  6256  043B  2C3D               	goto	u2731
  6257  043C  2C3E               	goto	u2730
  6258  043D                     u2731:
  6259  043D  2C3F               	goto	l574
  6260  043E                     u2730:
  6261  043E                     l2146:
  6262  043E  1471               	bsf	___fladd@b,0
  6263  043F                     l574:
  6264  043F  1C7C               	btfss	___fladd@grs,0
  6265  0440  2C42               	goto	u2741
  6266  0441  2C43               	goto	u2740
  6267  0442                     u2741:
  6268  0442  2C46               	goto	l2150
  6269  0443                     u2740:
  6270  0443                     l2148:
  6271  0443  1403               	setc
  6272  0444  0DFC               	rlf	___fladd@grs,f
  6273  0445  2C48               	goto	l2152
  6274  0446                     l2150:
  6275  0446  1003               	clrc
  6276  0447  0DFC               	rlf	___fladd@grs,f
  6277  0448                     l2152:
  6278  0448  087B               	movf	___fladd@bexp,w
  6279  0449  1903               	btfsc	3,2
  6280  044A  2C4C               	goto	u2751
  6281  044B  2C4D               	goto	u2750
  6282  044C                     u2751:
  6283  044C  2C4F               	goto	l2156
  6284  044D                     u2750:
  6285  044D                     l2154:
  6286  044D  3001               	movlw	1
  6287  044E  02FB               	subwf	___fladd@bexp,f
  6288  044F                     l2156:
  6289  044F  1FF3               	btfss	___fladd@b+2,7
  6290  0450  2C52               	goto	u2761
  6291  0451  2C53               	goto	u2760
  6292  0452                     u2761:
  6293  0452  2C33               	goto	l2142
  6294  0453                     u2760:
  6295  0453                     l2158:
  6296  0453  01FA               	clrf	___fladd@aexp
  6297  0454                     l2160:
  6298  0454  1FFC               	btfss	___fladd@grs,7
  6299  0455  2C57               	goto	u2771
  6300  0456  2C58               	goto	u2770
  6301  0457                     u2771:
  6302  0457  2C66               	goto	l2168
  6303  0458                     u2770:
  6304  0458                     l2162:
  6305  0458  087C               	movf	___fladd@grs,w
  6306  0459  397F               	andlw	127
  6307  045A  1903               	btfsc	3,2
  6308  045B  2C5D               	goto	u2781
  6309  045C  2C5E               	goto	u2780
  6310  045D                     u2781:
  6311  045D  2C61               	goto	l580
  6312  045E                     u2780:
  6313  045E                     l2164:
  6314  045E  01FA               	clrf	___fladd@aexp
  6315  045F  0AFA               	incf	___fladd@aexp,f
  6316  0460  2C66               	goto	l2168
  6317  0461                     l580:
  6318  0461  1C71               	btfss	___fladd@b,0
  6319  0462  2C64               	goto	u2791
  6320  0463  2C65               	goto	u2790
  6321  0464                     u2791:
  6322  0464  2C66               	goto	l2168
  6323  0465                     u2790:
  6324  0465  2C5E               	goto	l2164
  6325  0466                     l2168:
  6326  0466  087A               	movf	___fladd@aexp,w
  6327  0467  1903               	btfsc	3,2
  6328  0468  2C6A               	goto	u2801
  6329  0469  2C6B               	goto	u2800
  6330  046A                     u2801:
  6331  046A  2C99               	goto	l583
  6332  046B                     u2800:
  6333  046B                     l2170:
  6334  046B  3001               	movlw	1
  6335  046C  07F1               	addwf	___fladd@b,f
  6336  046D  3000               	movlw	0
  6337  046E  3DF2               	addwfc	___fladd@b+1,f
  6338  046F  3000               	movlw	0
  6339  0470  3DF3               	addwfc	___fladd@b+2,f
  6340  0471  3000               	movlw	0
  6341  0472  3DF4               	addwfc	___fladd@b+3,f
  6342  0473                     l2172:
  6343  0473  1C74               	btfss	___fladd@b+3,0
  6344  0474  2C76               	goto	u2811
  6345  0475  2C77               	goto	u2810
  6346  0476                     u2811:
  6347  0476  2C99               	goto	l583
  6348  0477                     u2810:
  6349  0477                     l2174:
  6350  0477  0871               	movf	___fladd@b,w
  6351  0478  0140               	movlb	0	; select bank0
  6352  0479  00A0               	movwf	??___fladd
  6353  047A  0872               	movf	___fladd@b+1,w
  6354  047B  00A1               	movwf	??___fladd+1
  6355  047C  0873               	movf	___fladd@b+2,w
  6356  047D  00A2               	movwf	??___fladd+2
  6357  047E  0874               	movf	___fladd@b+3,w
  6358  047F  00A3               	movwf	??___fladd+3
  6359  0480  3001               	movlw	1
  6360  0481  00A4               	movwf	??___fladd+4
  6361  0482                     u2825:
  6362  0482  37A3               	asrf	??___fladd+3,f
  6363  0483  0CA2               	rrf	??___fladd+2,f
  6364  0484  0CA1               	rrf	??___fladd+1,f
  6365  0485  0CA0               	rrf	??___fladd,f
  6366  0486                     u2820:
  6367  0486  0BA4               	decfsz	??___fladd+4,f
  6368  0487  2C82               	goto	u2825
  6369  0488  0823               	movf	??___fladd+3,w
  6370  0489  00F4               	movwf	___fladd@b+3
  6371  048A  0822               	movf	??___fladd+2,w
  6372  048B  00F3               	movwf	___fladd@b+2
  6373  048C  0821               	movf	??___fladd+1,w
  6374  048D  00F2               	movwf	___fladd@b+1
  6375  048E  0820               	movf	??___fladd,w
  6376  048F  00F1               	movwf	___fladd@b
  6377  0490  0A7B               	incf	___fladd@bexp,w
  6378  0491  1903               	btfsc	3,2
  6379  0492  2C94               	goto	u2831
  6380  0493  2C95               	goto	u2830
  6381  0494                     u2831:
  6382  0494  2C99               	goto	l583
  6383  0495                     u2830:
  6384  0495                     l2176:
  6385  0495  3001               	movlw	1
  6386  0496  00A0               	movwf	??___fladd
  6387  0497  0820               	movf	??___fladd,w
  6388  0498  07FB               	addwf	___fladd@bexp,f
  6389  0499                     l583:
  6390  0499  0A7B               	incf	___fladd@bexp,w
  6391  049A  1903               	btfsc	3,2
  6392  049B  2C9D               	goto	u2841
  6393  049C  2C9E               	goto	u2840
  6394  049D                     u2841:
  6395  049D  2CA3               	goto	l2180
  6396  049E                     u2840:
  6397  049E                     l2178:
  6398  049E  087B               	movf	___fladd@bexp,w
  6399  049F  1D03               	btfss	3,2
  6400  04A0  2CA2               	goto	u2851
  6401  04A1  2CA3               	goto	u2850
  6402  04A2                     u2851:
  6403  04A2  2CB1               	goto	l2186
  6404  04A3                     u2850:
  6405  04A3                     l2180:
  6406  04A3  3000               	movlw	0
  6407  04A4  00F4               	movwf	___fladd@b+3
  6408  04A5  3000               	movlw	0
  6409  04A6  00F3               	movwf	___fladd@b+2
  6410  04A7  3000               	movlw	0
  6411  04A8  00F2               	movwf	___fladd@b+1
  6412  04A9  3000               	movlw	0
  6413  04AA  00F1               	movwf	___fladd@b
  6414  04AB                     l2182:
  6415  04AB  087B               	movf	___fladd@bexp,w
  6416  04AC  1D03               	btfss	3,2
  6417  04AD  2CAF               	goto	u2861
  6418  04AE  2CB0               	goto	u2860
  6419  04AF                     u2861:
  6420  04AF  2CB1               	goto	l2186
  6421  04B0                     u2860:
  6422  04B0                     l2184:
  6423  04B0  01F9               	clrf	___fladd@signs
  6424  04B1                     l2186:
  6425  04B1  1C7B               	btfss	___fladd@bexp,0
  6426  04B2  2CB4               	goto	u2871
  6427  04B3  2CB5               	goto	u2870
  6428  04B4                     u2871:
  6429  04B4  2CB7               	goto	l2190
  6430  04B5                     u2870:
  6431  04B5                     l2188:
  6432  04B5  17F3               	bsf	___fladd@b+2,7
  6433  04B6  2CBC               	goto	l591
  6434  04B7                     l2190:
  6435  04B7  307F               	movlw	127
  6436  04B8  0140               	movlb	0	; select bank0
  6437  04B9  00A0               	movwf	??___fladd
  6438  04BA  0820               	movf	??___fladd,w
  6439  04BB  05F3               	andwf	___fladd@b+2,f
  6440  04BC                     l591:
  6441  04BC  367B               	lsrf	___fladd@bexp,w
  6442  04BD  0140               	movlb	0	; select bank0
  6443  04BE  00A0               	movwf	??___fladd
  6444  04BF  0820               	movf	??___fladd,w
  6445  04C0  00F4               	movwf	___fladd@b+3
  6446  04C1                     l2192:
  6447  04C1  1FF9               	btfss	___fladd@signs,7
  6448  04C2  2CC4               	goto	u2881
  6449  04C3  2CC5               	goto	u2880
  6450  04C4                     u2881:
  6451  04C4  2CC6               	goto	l592
  6452  04C5                     u2880:
  6453  04C5                     l2194:
  6454  04C5  17F4               	bsf	___fladd@b+3,7
  6455  04C6                     l592:
  6456  04C6                     l562:
  6457  04C6  0008               	return
  6458  04C7                     __end_of___fladd:
  6459                           
  6460                           	psect	text21
  6461  1572                     __ptext21:	
  6462 ;; *************** function ___flneg *****************
  6463 ;; Defined at:
  6464 ;;		line 15 in file "C:\Program Files\Microchip\xc8\v2.32\pic\sources\c99\common\flneg.c"
  6465 ;; Parameters:    Size  Location     Type
  6466 ;;  f1              4    1[COMMON] unsigned char 
  6467 ;; Auto vars:     Size  Location     Type
  6468 ;;		None
  6469 ;; Return value:  Size  Location     Type
  6470 ;;                  4    1[COMMON] unsigned char 
  6471 ;; Registers used:
  6472 ;;		wreg
  6473 ;; Tracked objects:
  6474 ;;		On entry : 0/0
  6475 ;;		On exit  : 0/0
  6476 ;;		Unchanged: 0/0
  6477 ;; Data sizes:     COMMON   BANK0   BANK1   BANK2   BANK3   BANK4   BANK5   BANK6   BANK7   BANK8   BANK9  BANK10  BANK1
      +1  BANK12  BANK13  BANK14  BANK15  BANK16  BANK17  BANK18  BANK19  BANK20  BANK21  BANK22  BANK23  BANK24  BANK25
  6478 ;;      Params:         4       0       0       0       0       0       0       0       0       0       0       0       
      +0       0       0       0       0       0       0       0       0       0       0       0       0       0       0
  6479 ;;      Locals:         0       0       0       0       0       0       0       0       0       0       0       0       
      +0       0       0       0       0       0       0       0       0       0       0       0       0       0       0
  6480 ;;      Temps:          0       0       0       0       0       0       0       0       0       0       0       0       
      +0       0       0       0       0       0       0       0       0       0       0       0       0       0       0
  6481 ;;      Totals:         4       0       0       0       0       0       0       0       0       0       0       0       
      +0       0       0       0       0       0       0       0       0       0       0       0       0       0       0
  6482 ;;Total ram usage:        4 bytes
  6483 ;; Hardware stack levels used: 1
  6484 ;; Hardware stack levels required when called: 1
  6485 ;; This function calls:
  6486 ;;		Nothing
  6487 ;; This function is called by:
  6488 ;;		_roundf
  6489 ;; This function uses a non-reentrant model
  6490 ;;
  6491                           
  6492                           
  6493                           ;psect for function ___flneg
  6494  1572                     ___flneg:
  6495  1572                     l2310:	
  6496                           ;incstack = 0
  6497                           ; Regs used in ___flneg: [wreg]
  6498                           
  6499  1572  0874               	movf	___flneg@f1+3,w
  6500  1573  0473               	iorwf	___flneg@f1+2,w
  6501  1574  0472               	iorwf	___flneg@f1+1,w
  6502  1575  0471               	iorwf	___flneg@f1,w
  6503  1576  1903               	skipnz
  6504  1577  2D79               	goto	u3181
  6505  1578  2D7A               	goto	u3180
  6506  1579                     u3181:
  6507  1579  2D7C               	goto	l2314
  6508  157A                     u3180:
  6509  157A                     l2312:
  6510  157A  3080               	movlw	128
  6511  157B  06F4               	xorwf	___flneg@f1+3,f
  6512  157C                     l2314:
  6513  157C                     l438:
  6514  157C  0008               	return
  6515  157D                     __end_of___flneg:
  6516                           
  6517                           	psect	text22
  6518  0031                     __ptext22:	
  6519 ;; *************** function ___flmul *****************
  6520 ;; Defined at:
  6521 ;;		line 8 in file "C:\Program Files\Microchip\xc8\v2.32\pic\sources\c99\common\sprcmul.c"
  6522 ;; Parameters:    Size  Location     Type
  6523 ;;  b               4    6[BANK0 ] unsigned char 
  6524 ;;  a               4   10[BANK0 ] unsigned char 
  6525 ;; Auto vars:     Size  Location     Type
  6526 ;;  prod            4   26[BANK0 ] struct .
  6527 ;;  grs             4   20[BANK0 ] unsigned long 
  6528 ;;  temp            2   30[BANK0 ] struct .
  6529 ;;  bexp            1   25[BANK0 ] unsigned char 
  6530 ;;  aexp            1   24[BANK0 ] unsigned char 
  6531 ;;  sign            1   19[BANK0 ] unsigned char 
  6532 ;; Return value:  Size  Location     Type
  6533 ;;                  4    6[BANK0 ] unsigned char 
  6534 ;; Registers used:
  6535 ;;		wreg, status,2, status,0, pclath, cstack
  6536 ;; Tracked objects:
  6537 ;;		On entry : 0/0
  6538 ;;		On exit  : 0/0
  6539 ;;		Unchanged: 0/0
  6540 ;; Data sizes:     COMMON   BANK0   BANK1   BANK2   BANK3   BANK4   BANK5   BANK6   BANK7   BANK8   BANK9  BANK10  BANK1
      +1  BANK12  BANK13  BANK14  BANK15  BANK16  BANK17  BANK18  BANK19  BANK20  BANK21  BANK22  BANK23  BANK24  BANK25
  6541 ;;      Params:         0       8       0       0       0       0       0       0       0       0       0       0       
      +0       0       0       0       0       0       0       0       0       0       0       0       0       0       0
  6542 ;;      Locals:         0      13       0       0       0       0       0       0       0       0       0       0       
      +0       0       0       0       0       0       0       0       0       0       0       0       0       0       0
  6543 ;;      Temps:          0       5       0       0       0       0       0       0       0       0       0       0       
      +0       0       0       0       0       0       0       0       0       0       0       0       0       0       0
  6544 ;;      Totals:         0      26       0       0       0       0       0       0       0       0       0       0       
      +0       0       0       0       0       0       0       0       0       0       0       0       0       0       0
  6545 ;;Total ram usage:       26 bytes
  6546 ;; Hardware stack levels used: 1
  6547 ;; Hardware stack levels required when called: 2
  6548 ;; This function calls:
  6549 ;;		__Umul8_16
  6550 ;; This function is called by:
  6551 ;;		_main
  6552 ;;		_roundf
  6553 ;; This function uses a non-reentrant model
  6554 ;;
  6555                           
  6556                           
  6557                           ;psect for function ___flmul
  6558  0031                     ___flmul:
  6559  0031                     l2324:	
  6560                           ;incstack = 0
  6561                           ; Regs used in ___flmul: [wreg+status,2+status,0+pclath+cstack]
  6562                           
  6563  0031  0140               	movlb	0	; select bank0
  6564  0032  0829               	movf	___flmul@b+3,w
  6565  0033  3980               	andlw	128
  6566  0034  00AE               	movwf	??___flmul
  6567  0035  082E               	movf	??___flmul,w
  6568  0036  00B3               	movwf	___flmul@sign
  6569  0037                     l2326:
  6570  0037  3529               	lslf	___flmul@b+3,w
  6571  0038  00AE               	movwf	??___flmul
  6572  0039  082E               	movf	??___flmul,w
  6573  003A  00B9               	movwf	___flmul@bexp
  6574  003B                     l2328:
  6575  003B  1FA8               	btfss	___flmul@b+2,7
  6576  003C  283E               	goto	u3191
  6577  003D  283F               	goto	u3190
  6578  003E                     u3191:
  6579  003E  2840               	goto	l2332
  6580  003F                     u3190:
  6581  003F                     l2330:
  6582  003F  1439               	bsf	___flmul@bexp,0
  6583  0040                     l2332:
  6584  0040  0839               	movf	___flmul@bexp,w
  6585  0041  1903               	btfsc	3,2
  6586  0042  2844               	goto	u3201
  6587  0043  2845               	goto	u3200
  6588  0044                     u3201:
  6589  0044  2854               	goto	l2340
  6590  0045                     u3200:
  6591  0045                     l2334:
  6592  0045  0A39               	incf	___flmul@bexp,w
  6593  0046  1D03               	btfss	3,2
  6594  0047  2849               	goto	u3211
  6595  0048  284A               	goto	u3210
  6596  0049                     u3211:
  6597  0049  2852               	goto	l2338
  6598  004A                     u3210:
  6599  004A                     l2336:
  6600  004A  3000               	movlw	0
  6601  004B  00A9               	movwf	___flmul@b+3
  6602  004C  3000               	movlw	0
  6603  004D  00A8               	movwf	___flmul@b+2
  6604  004E  3000               	movlw	0
  6605  004F  00A7               	movwf	___flmul@b+1
  6606  0050  3000               	movlw	0
  6607  0051  00A6               	movwf	___flmul@b
  6608  0052                     l2338:
  6609  0052  17A8               	bsf	___flmul@b+2,7
  6610  0053  285C               	goto	l2342
  6611  0054                     l2340:
  6612  0054  3000               	movlw	0
  6613  0055  00A9               	movwf	___flmul@b+3
  6614  0056  3000               	movlw	0
  6615  0057  00A8               	movwf	___flmul@b+2
  6616  0058  3000               	movlw	0
  6617  0059  00A7               	movwf	___flmul@b+1
  6618  005A  3000               	movlw	0
  6619  005B  00A6               	movwf	___flmul@b
  6620  005C                     l2342:
  6621  005C  082D               	movf	___flmul@a+3,w
  6622  005D  3980               	andlw	128
  6623  005E  00AE               	movwf	??___flmul
  6624  005F  082E               	movf	??___flmul,w
  6625  0060  06B3               	xorwf	___flmul@sign,f
  6626  0061                     l2344:
  6627  0061  352D               	lslf	___flmul@a+3,w
  6628  0062  00AE               	movwf	??___flmul
  6629  0063  082E               	movf	??___flmul,w
  6630  0064  00B8               	movwf	___flmul@aexp
  6631  0065                     l2346:
  6632  0065  1FAC               	btfss	___flmul@a+2,7
  6633  0066  2868               	goto	u3221
  6634  0067  2869               	goto	u3220
  6635  0068                     u3221:
  6636  0068  286A               	goto	l2350
  6637  0069                     u3220:
  6638  0069                     l2348:
  6639  0069  1438               	bsf	___flmul@aexp,0
  6640  006A                     l2350:
  6641  006A  0838               	movf	___flmul@aexp,w
  6642  006B  1903               	btfsc	3,2
  6643  006C  286E               	goto	u3231
  6644  006D  286F               	goto	u3230
  6645  006E                     u3231:
  6646  006E  287E               	goto	l2358
  6647  006F                     u3230:
  6648  006F                     l2352:
  6649  006F  0A38               	incf	___flmul@aexp,w
  6650  0070  1D03               	btfss	3,2
  6651  0071  2873               	goto	u3241
  6652  0072  2874               	goto	u3240
  6653  0073                     u3241:
  6654  0073  287C               	goto	l2356
  6655  0074                     u3240:
  6656  0074                     l2354:
  6657  0074  3000               	movlw	0
  6658  0075  00AD               	movwf	___flmul@a+3
  6659  0076  3000               	movlw	0
  6660  0077  00AC               	movwf	___flmul@a+2
  6661  0078  3000               	movlw	0
  6662  0079  00AB               	movwf	___flmul@a+1
  6663  007A  3000               	movlw	0
  6664  007B  00AA               	movwf	___flmul@a
  6665  007C                     l2356:
  6666  007C  17AC               	bsf	___flmul@a+2,7
  6667  007D  2886               	goto	l2360
  6668  007E                     l2358:
  6669  007E  3000               	movlw	0
  6670  007F  00AD               	movwf	___flmul@a+3
  6671  0080  3000               	movlw	0
  6672  0081  00AC               	movwf	___flmul@a+2
  6673  0082  3000               	movlw	0
  6674  0083  00AB               	movwf	___flmul@a+1
  6675  0084  3000               	movlw	0
  6676  0085  00AA               	movwf	___flmul@a
  6677  0086                     l2360:
  6678  0086  0838               	movf	___flmul@aexp,w
  6679  0087  1903               	btfsc	3,2
  6680  0088  288A               	goto	u3251
  6681  0089  288B               	goto	u3250
  6682  008A                     u3251:
  6683  008A  2890               	goto	l2364
  6684  008B                     u3250:
  6685  008B                     l2362:
  6686  008B  0839               	movf	___flmul@bexp,w
  6687  008C  1D03               	btfss	3,2
  6688  008D  288F               	goto	u3261
  6689  008E  2890               	goto	u3260
  6690  008F                     u3261:
  6691  008F  2899               	goto	l2368
  6692  0090                     u3260:
  6693  0090                     l2364:
  6694  0090  3000               	movlw	0
  6695  0091  00A9               	movwf	?___flmul+3
  6696  0092  3000               	movlw	0
  6697  0093  00A8               	movwf	?___flmul+2
  6698  0094  3000               	movlw	0
  6699  0095  00A7               	movwf	?___flmul+1
  6700  0096  3000               	movlw	0
  6701  0097  00A6               	movwf	?___flmul
  6702  0098  2A87               	goto	l645
  6703  0099                     l2368:
  6704  0099  0826               	movf	___flmul@b,w
  6705  009A  00AE               	movwf	??___flmul
  6706  009B  082E               	movf	??___flmul,w
  6707  009C  00F1               	movwf	__Umul8_16@multiplicand
  6708  009D  082C               	movf	___flmul@a+2,w
  6709  009E  3196  261C  3180   	fcall	__Umul8_16
  6710  00A1  0872               	movf	?__Umul8_16+1,w
  6711  00A2  0140               	movlb	0	; select bank0
  6712  00A3  00BF               	movwf	___flmul@temp+1
  6713  00A4  0871               	movf	?__Umul8_16,w
  6714  00A5  00BE               	movwf	___flmul@temp
  6715  00A6                     l2370:
  6716  00A6  083E               	movf	___flmul@temp,w
  6717  00A7  00AE               	movwf	??___flmul
  6718  00A8  01AF               	clrf	??___flmul+1
  6719  00A9  01B0               	clrf	??___flmul+2
  6720  00AA  01B1               	clrf	??___flmul+3
  6721  00AB  0831               	movf	??___flmul+3,w
  6722  00AC  00B7               	movwf	___flmul@grs+3
  6723  00AD  0830               	movf	??___flmul+2,w
  6724  00AE  00B6               	movwf	___flmul@grs+2
  6725  00AF  082F               	movf	??___flmul+1,w
  6726  00B0  00B5               	movwf	___flmul@grs+1
  6727  00B1  082E               	movf	??___flmul,w
  6728  00B2  00B4               	movwf	___flmul@grs
  6729  00B3                     l2372:
  6730  00B3  083F               	movf	___flmul@temp+1,w
  6731  00B4  00AE               	movwf	??___flmul
  6732  00B5  01AF               	clrf	??___flmul+1
  6733  00B6  01B0               	clrf	??___flmul+2
  6734  00B7  01B1               	clrf	??___flmul+3
  6735  00B8  0831               	movf	??___flmul+3,w
  6736  00B9  00BD               	movwf	___flmul@prod+3
  6737  00BA  0830               	movf	??___flmul+2,w
  6738  00BB  00BC               	movwf	___flmul@prod+2
  6739  00BC  082F               	movf	??___flmul+1,w
  6740  00BD  00BB               	movwf	___flmul@prod+1
  6741  00BE  082E               	movf	??___flmul,w
  6742  00BF  00BA               	movwf	___flmul@prod
  6743  00C0  0827               	movf	___flmul@b+1,w
  6744  00C1  00AE               	movwf	??___flmul
  6745  00C2  082E               	movf	??___flmul,w
  6746  00C3  00F1               	movwf	__Umul8_16@multiplicand
  6747  00C4  082B               	movf	___flmul@a+1,w
  6748  00C5  3196  261C  3180   	fcall	__Umul8_16
  6749  00C8  0872               	movf	?__Umul8_16+1,w
  6750  00C9  0140               	movlb	0	; select bank0
  6751  00CA  00BF               	movwf	___flmul@temp+1
  6752  00CB  0871               	movf	?__Umul8_16,w
  6753  00CC  00BE               	movwf	___flmul@temp
  6754  00CD                     l2374:
  6755  00CD  083E               	movf	___flmul@temp,w
  6756  00CE  00AE               	movwf	??___flmul
  6757  00CF  01AF               	clrf	??___flmul+1
  6758  00D0  01B0               	clrf	??___flmul+2
  6759  00D1  01B1               	clrf	??___flmul+3
  6760  00D2  082E               	movf	??___flmul,w
  6761  00D3  07B4               	addwf	___flmul@grs,f
  6762  00D4  082F               	movf	??___flmul+1,w
  6763  00D5  3DB5               	addwfc	___flmul@grs+1,f
  6764  00D6  0830               	movf	??___flmul+2,w
  6765  00D7  3DB6               	addwfc	___flmul@grs+2,f
  6766  00D8  0831               	movf	??___flmul+3,w
  6767  00D9  3DB7               	addwfc	___flmul@grs+3,f
  6768  00DA                     l2376:
  6769  00DA  083F               	movf	___flmul@temp+1,w
  6770  00DB  00AE               	movwf	??___flmul
  6771  00DC  01AF               	clrf	??___flmul+1
  6772  00DD  01B0               	clrf	??___flmul+2
  6773  00DE  01B1               	clrf	??___flmul+3
  6774  00DF  082E               	movf	??___flmul,w
  6775  00E0  07BA               	addwf	___flmul@prod,f
  6776  00E1  082F               	movf	??___flmul+1,w
  6777  00E2  3DBB               	addwfc	___flmul@prod+1,f
  6778  00E3  0830               	movf	??___flmul+2,w
  6779  00E4  3DBC               	addwfc	___flmul@prod+2,f
  6780  00E5  0831               	movf	??___flmul+3,w
  6781  00E6  3DBD               	addwfc	___flmul@prod+3,f
  6782  00E7  0828               	movf	___flmul@b+2,w
  6783  00E8  00AE               	movwf	??___flmul
  6784  00E9  082E               	movf	??___flmul,w
  6785  00EA  00F1               	movwf	__Umul8_16@multiplicand
  6786  00EB  082A               	movf	___flmul@a,w
  6787  00EC  3196  261C  3180   	fcall	__Umul8_16
  6788  00EF  0872               	movf	?__Umul8_16+1,w
  6789  00F0  0140               	movlb	0	; select bank0
  6790  00F1  00BF               	movwf	___flmul@temp+1
  6791  00F2  0871               	movf	?__Umul8_16,w
  6792  00F3  00BE               	movwf	___flmul@temp
  6793  00F4                     l2378:
  6794  00F4  083E               	movf	___flmul@temp,w
  6795  00F5  00AE               	movwf	??___flmul
  6796  00F6  01AF               	clrf	??___flmul+1
  6797  00F7  01B0               	clrf	??___flmul+2
  6798  00F8  01B1               	clrf	??___flmul+3
  6799  00F9  082E               	movf	??___flmul,w
  6800  00FA  07B4               	addwf	___flmul@grs,f
  6801  00FB  082F               	movf	??___flmul+1,w
  6802  00FC  3DB5               	addwfc	___flmul@grs+1,f
  6803  00FD  0830               	movf	??___flmul+2,w
  6804  00FE  3DB6               	addwfc	___flmul@grs+2,f
  6805  00FF  0831               	movf	??___flmul+3,w
  6806  0100  3DB7               	addwfc	___flmul@grs+3,f
  6807  0101                     l2380:
  6808  0101  083F               	movf	___flmul@temp+1,w
  6809  0102  00AE               	movwf	??___flmul
  6810  0103  01AF               	clrf	??___flmul+1
  6811  0104  01B0               	clrf	??___flmul+2
  6812  0105  01B1               	clrf	??___flmul+3
  6813  0106  082E               	movf	??___flmul,w
  6814  0107  07BA               	addwf	___flmul@prod,f
  6815  0108  082F               	movf	??___flmul+1,w
  6816  0109  3DBB               	addwfc	___flmul@prod+1,f
  6817  010A  0830               	movf	??___flmul+2,w
  6818  010B  3DBC               	addwfc	___flmul@prod+2,f
  6819  010C  0831               	movf	??___flmul+3,w
  6820  010D  3DBD               	addwfc	___flmul@prod+3,f
  6821  010E                     l2382:
  6822  010E  3008               	movlw	8
  6823  010F                     u3275:
  6824  010F  35B4               	lslf	___flmul@grs,f
  6825  0110  0DB5               	rlf	___flmul@grs+1,f
  6826  0111  0DB6               	rlf	___flmul@grs+2,f
  6827  0112  0DB7               	rlf	___flmul@grs+3,f
  6828  0113  0B89               	decfsz	9,f
  6829  0114  290F               	goto	u3275
  6830  0115                     l2384:
  6831  0115  0827               	movf	___flmul@b+1,w
  6832  0116  00AE               	movwf	??___flmul
  6833  0117  082E               	movf	??___flmul,w
  6834  0118  00F1               	movwf	__Umul8_16@multiplicand
  6835  0119  082A               	movf	___flmul@a,w
  6836  011A  3196  261C  3180   	fcall	__Umul8_16
  6837  011D  0872               	movf	?__Umul8_16+1,w
  6838  011E  0140               	movlb	0	; select bank0
  6839  011F  00BF               	movwf	___flmul@temp+1
  6840  0120  0871               	movf	?__Umul8_16,w
  6841  0121  00BE               	movwf	___flmul@temp
  6842  0122                     l2386:
  6843  0122  083E               	movf	___flmul@temp,w
  6844  0123  07B4               	addwf	___flmul@grs,f
  6845  0124  083F               	movf	___flmul@temp+1,w
  6846  0125  3DB5               	addwfc	___flmul@grs+1,f
  6847  0126  3000               	movlw	0
  6848  0127  3DB6               	addwfc	___flmul@grs+2,f
  6849  0128  3DB7               	addwfc	___flmul@grs+3,f
  6850  0129                     l2388:
  6851  0129  0826               	movf	___flmul@b,w
  6852  012A  00AE               	movwf	??___flmul
  6853  012B  082E               	movf	??___flmul,w
  6854  012C  00F1               	movwf	__Umul8_16@multiplicand
  6855  012D  082B               	movf	___flmul@a+1,w
  6856  012E  3196  261C  3180   	fcall	__Umul8_16
  6857  0131  0872               	movf	?__Umul8_16+1,w
  6858  0132  0140               	movlb	0	; select bank0
  6859  0133  00BF               	movwf	___flmul@temp+1
  6860  0134  0871               	movf	?__Umul8_16,w
  6861  0135  00BE               	movwf	___flmul@temp
  6862  0136                     l2390:
  6863  0136  083E               	movf	___flmul@temp,w
  6864  0137  07B4               	addwf	___flmul@grs,f
  6865  0138  083F               	movf	___flmul@temp+1,w
  6866  0139  3DB5               	addwfc	___flmul@grs+1,f
  6867  013A  3000               	movlw	0
  6868  013B  3DB6               	addwfc	___flmul@grs+2,f
  6869  013C  3DB7               	addwfc	___flmul@grs+3,f
  6870  013D                     l2392:
  6871  013D  3008               	movlw	8
  6872  013E                     u3285:
  6873  013E  35B4               	lslf	___flmul@grs,f
  6874  013F  0DB5               	rlf	___flmul@grs+1,f
  6875  0140  0DB6               	rlf	___flmul@grs+2,f
  6876  0141  0DB7               	rlf	___flmul@grs+3,f
  6877  0142  0B89               	decfsz	9,f
  6878  0143  293E               	goto	u3285
  6879  0144  0826               	movf	___flmul@b,w
  6880  0145  00AE               	movwf	??___flmul
  6881  0146  082E               	movf	??___flmul,w
  6882  0147  00F1               	movwf	__Umul8_16@multiplicand
  6883  0148  082A               	movf	___flmul@a,w
  6884  0149  3196  261C  3180   	fcall	__Umul8_16
  6885  014C  0872               	movf	?__Umul8_16+1,w
  6886  014D  0140               	movlb	0	; select bank0
  6887  014E  00BF               	movwf	___flmul@temp+1
  6888  014F  0871               	movf	?__Umul8_16,w
  6889  0150  00BE               	movwf	___flmul@temp
  6890  0151                     l2394:
  6891  0151  083E               	movf	___flmul@temp,w
  6892  0152  07B4               	addwf	___flmul@grs,f
  6893  0153  083F               	movf	___flmul@temp+1,w
  6894  0154  3DB5               	addwfc	___flmul@grs+1,f
  6895  0155  3000               	movlw	0
  6896  0156  3DB6               	addwfc	___flmul@grs+2,f
  6897  0157  3DB7               	addwfc	___flmul@grs+3,f
  6898  0158                     l2396:
  6899  0158  0827               	movf	___flmul@b+1,w
  6900  0159  00AE               	movwf	??___flmul
  6901  015A  082E               	movf	??___flmul,w
  6902  015B  00F1               	movwf	__Umul8_16@multiplicand
  6903  015C  082C               	movf	___flmul@a+2,w
  6904  015D  3196  261C  3180   	fcall	__Umul8_16
  6905  0160  0872               	movf	?__Umul8_16+1,w
  6906  0161  0140               	movlb	0	; select bank0
  6907  0162  00BF               	movwf	___flmul@temp+1
  6908  0163  0871               	movf	?__Umul8_16,w
  6909  0164  00BE               	movwf	___flmul@temp
  6910  0165  083E               	movf	___flmul@temp,w
  6911  0166  07BA               	addwf	___flmul@prod,f
  6912  0167  083F               	movf	___flmul@temp+1,w
  6913  0168  3DBB               	addwfc	___flmul@prod+1,f
  6914  0169  3000               	movlw	0
  6915  016A  3DBC               	addwfc	___flmul@prod+2,f
  6916  016B  3DBD               	addwfc	___flmul@prod+3,f
  6917  016C                     l2398:
  6918  016C  0828               	movf	___flmul@b+2,w
  6919  016D  00AE               	movwf	??___flmul
  6920  016E  082E               	movf	??___flmul,w
  6921  016F  00F1               	movwf	__Umul8_16@multiplicand
  6922  0170  082B               	movf	___flmul@a+1,w
  6923  0171  3196  261C  3180   	fcall	__Umul8_16
  6924  0174  0872               	movf	?__Umul8_16+1,w
  6925  0175  0140               	movlb	0	; select bank0
  6926  0176  00BF               	movwf	___flmul@temp+1
  6927  0177  0871               	movf	?__Umul8_16,w
  6928  0178  00BE               	movwf	___flmul@temp
  6929  0179                     l2400:
  6930  0179  083E               	movf	___flmul@temp,w
  6931  017A  07BA               	addwf	___flmul@prod,f
  6932  017B  083F               	movf	___flmul@temp+1,w
  6933  017C  3DBB               	addwfc	___flmul@prod+1,f
  6934  017D  3000               	movlw	0
  6935  017E  3DBC               	addwfc	___flmul@prod+2,f
  6936  017F  3DBD               	addwfc	___flmul@prod+3,f
  6937  0180  0828               	movf	___flmul@b+2,w
  6938  0181  00AE               	movwf	??___flmul
  6939  0182  082E               	movf	??___flmul,w
  6940  0183  00F1               	movwf	__Umul8_16@multiplicand
  6941  0184  082C               	movf	___flmul@a+2,w
  6942  0185  3196  261C  3180   	fcall	__Umul8_16
  6943  0188  0872               	movf	?__Umul8_16+1,w
  6944  0189  0140               	movlb	0	; select bank0
  6945  018A  00BF               	movwf	___flmul@temp+1
  6946  018B  0871               	movf	?__Umul8_16,w
  6947  018C  00BE               	movwf	___flmul@temp
  6948  018D                     l2402:
  6949  018D  083E               	movf	___flmul@temp,w
  6950  018E  00AE               	movwf	??___flmul
  6951  018F  083F               	movf	___flmul@temp+1,w
  6952  0190  00AF               	movwf	??___flmul+1
  6953  0191  01B0               	clrf	??___flmul+2
  6954  0192  01B1               	clrf	??___flmul+3
  6955  0193  3008               	movlw	8
  6956  0194                     u3295:
  6957  0194  35AE               	lslf	??___flmul,f
  6958  0195  0DAF               	rlf	??___flmul+1,f
  6959  0196  0DB0               	rlf	??___flmul+2,f
  6960  0197  0DB1               	rlf	??___flmul+3,f
  6961  0198                     u3290:
  6962  0198  0B89               	decfsz	9,f
  6963  0199  2994               	goto	u3295
  6964  019A  082E               	movf	??___flmul,w
  6965  019B  07BA               	addwf	___flmul@prod,f
  6966  019C  082F               	movf	??___flmul+1,w
  6967  019D  3DBB               	addwfc	___flmul@prod+1,f
  6968  019E  0830               	movf	??___flmul+2,w
  6969  019F  3DBC               	addwfc	___flmul@prod+2,f
  6970  01A0  0831               	movf	??___flmul+3,w
  6971  01A1  3DBD               	addwfc	___flmul@prod+3,f
  6972  01A2                     l2404:
  6973  01A2  0834               	movf	___flmul@grs,w
  6974  01A3  00AE               	movwf	??___flmul
  6975  01A4  0835               	movf	___flmul@grs+1,w
  6976  01A5  00AF               	movwf	??___flmul+1
  6977  01A6  0836               	movf	___flmul@grs+2,w
  6978  01A7  00B0               	movwf	??___flmul+2
  6979  01A8  0837               	movf	___flmul@grs+3,w
  6980  01A9  00B1               	movwf	??___flmul+3
  6981  01AA  3018               	movlw	24
  6982  01AB                     u3305:
  6983  01AB  36B1               	lsrf	??___flmul+3,f
  6984  01AC  0CB0               	rrf	??___flmul+2,f
  6985  01AD  0CAF               	rrf	??___flmul+1,f
  6986  01AE  0CAE               	rrf	??___flmul,f
  6987  01AF                     u3300:
  6988  01AF  0B89               	decfsz	9,f
  6989  01B0  29AB               	goto	u3305
  6990  01B1  082E               	movf	??___flmul,w
  6991  01B2  07BA               	addwf	___flmul@prod,f
  6992  01B3  082F               	movf	??___flmul+1,w
  6993  01B4  3DBB               	addwfc	___flmul@prod+1,f
  6994  01B5  0830               	movf	??___flmul+2,w
  6995  01B6  3DBC               	addwfc	___flmul@prod+2,f
  6996  01B7  0831               	movf	??___flmul+3,w
  6997  01B8  3DBD               	addwfc	___flmul@prod+3,f
  6998  01B9                     l2406:
  6999  01B9  3008               	movlw	8
  7000  01BA                     u3315:
  7001  01BA  35B4               	lslf	___flmul@grs,f
  7002  01BB  0DB5               	rlf	___flmul@grs+1,f
  7003  01BC  0DB6               	rlf	___flmul@grs+2,f
  7004  01BD  0DB7               	rlf	___flmul@grs+3,f
  7005  01BE  0B89               	decfsz	9,f
  7006  01BF  29BA               	goto	u3315
  7007  01C0                     l2408:
  7008  01C0  0839               	movf	___flmul@bexp,w
  7009  01C1  0738               	addwf	___flmul@aexp,w
  7010  01C2  00AE               	movwf	??___flmul
  7011  01C3  01AF               	clrf	??___flmul+1
  7012  01C4  0DAF               	rlf	??___flmul+1,f
  7013  01C5  082E               	movf	??___flmul,w
  7014  01C6  3E82               	addlw	130
  7015  01C7  00BE               	movwf	___flmul@temp
  7016  01C8  30FF               	movlw	255
  7017  01C9  3D2F               	addwfc	??___flmul+1,w
  7018  01CA  00BF               	movwf	___flmul@temp+1
  7019  01CB  29E3               	goto	l2420
  7020  01CC                     l2410:
  7021  01CC  3001               	movlw	1
  7022  01CD                     u3325:
  7023  01CD  35BA               	lslf	___flmul@prod,f
  7024  01CE  0DBB               	rlf	___flmul@prod+1,f
  7025  01CF  0DBC               	rlf	___flmul@prod+2,f
  7026  01D0  0DBD               	rlf	___flmul@prod+3,f
  7027  01D1  0B89               	decfsz	9,f
  7028  01D2  29CD               	goto	u3325
  7029  01D3                     l2412:
  7030  01D3  1FB7               	btfss	___flmul@grs+3,7
  7031  01D4  29D6               	goto	u3331
  7032  01D5  29D7               	goto	u3330
  7033  01D6                     u3331:
  7034  01D6  29D8               	goto	l2416
  7035  01D7                     u3330:
  7036  01D7                     l2414:
  7037  01D7  143A               	bsf	___flmul@prod,0
  7038  01D8                     l2416:
  7039  01D8  3001               	movlw	1
  7040  01D9                     u3345:
  7041  01D9  35B4               	lslf	___flmul@grs,f
  7042  01DA  0DB5               	rlf	___flmul@grs+1,f
  7043  01DB  0DB6               	rlf	___flmul@grs+2,f
  7044  01DC  0DB7               	rlf	___flmul@grs+3,f
  7045  01DD  0B89               	decfsz	9,f
  7046  01DE  29D9               	goto	u3345
  7047  01DF                     l2418:
  7048  01DF  30FF               	movlw	255
  7049  01E0  07BE               	addwf	___flmul@temp,f
  7050  01E1  30FF               	movlw	255
  7051  01E2  3DBF               	addwfc	___flmul@temp+1,f
  7052  01E3                     l2420:
  7053  01E3  1FBC               	btfss	___flmul@prod+2,7
  7054  01E4  29E6               	goto	u3351
  7055  01E5  29E7               	goto	u3350
  7056  01E6                     u3351:
  7057  01E6  29CC               	goto	l2410
  7058  01E7                     u3350:
  7059  01E7                     l2422:
  7060  01E7  01B8               	clrf	___flmul@aexp
  7061  01E8                     l2424:
  7062  01E8  1FB7               	btfss	___flmul@grs+3,7
  7063  01E9  29EB               	goto	u3361
  7064  01EA  29EC               	goto	u3360
  7065  01EB                     u3361:
  7066  01EB  2A08               	goto	l2432
  7067  01EC                     u3360:
  7068  01EC                     l2426:
  7069  01EC  30FF               	movlw	255
  7070  01ED  0534               	andwf	___flmul@grs,w
  7071  01EE  00AE               	movwf	??___flmul
  7072  01EF  30FF               	movlw	255
  7073  01F0  0535               	andwf	___flmul@grs+1,w
  7074  01F1  00AF               	movwf	??___flmul+1
  7075  01F2  30FF               	movlw	255
  7076  01F3  0536               	andwf	___flmul@grs+2,w
  7077  01F4  00B0               	movwf	??___flmul+2
  7078  01F5  307F               	movlw	127
  7079  01F6  0537               	andwf	___flmul@grs+3,w
  7080  01F7  00B1               	movwf	??___flmul+3
  7081  01F8  0831               	movf	??___flmul+3,w
  7082  01F9  0430               	iorwf	??___flmul+2,w
  7083  01FA  042F               	iorwf	??___flmul+1,w
  7084  01FB  042E               	iorwf	??___flmul,w
  7085  01FC  1903               	skipnz
  7086  01FD  29FF               	goto	u3371
  7087  01FE  2A00               	goto	u3370
  7088  01FF                     u3371:
  7089  01FF  2A03               	goto	l651
  7090  0200                     u3370:
  7091  0200                     l2428:
  7092  0200  01B8               	clrf	___flmul@aexp
  7093  0201  0AB8               	incf	___flmul@aexp,f
  7094  0202  2A08               	goto	l2432
  7095  0203                     l651:
  7096  0203  1C3A               	btfss	___flmul@prod,0
  7097  0204  2A06               	goto	u3381
  7098  0205  2A07               	goto	u3380
  7099  0206                     u3381:
  7100  0206  2A08               	goto	l2432
  7101  0207                     u3380:
  7102  0207  2A00               	goto	l2428
  7103  0208                     l2432:
  7104  0208  0838               	movf	___flmul@aexp,w
  7105  0209  1903               	btfsc	3,2
  7106  020A  2A0C               	goto	u3391
  7107  020B  2A0D               	goto	u3390
  7108  020C                     u3391:
  7109  020C  2A35               	goto	l2442
  7110  020D                     u3390:
  7111  020D                     l2434:
  7112  020D  3001               	movlw	1
  7113  020E  07BA               	addwf	___flmul@prod,f
  7114  020F  3000               	movlw	0
  7115  0210  3DBB               	addwfc	___flmul@prod+1,f
  7116  0211  3000               	movlw	0
  7117  0212  3DBC               	addwfc	___flmul@prod+2,f
  7118  0213  3000               	movlw	0
  7119  0214  3DBD               	addwfc	___flmul@prod+3,f
  7120  0215                     l2436:
  7121  0215  1C3D               	btfss	___flmul@prod+3,0
  7122  0216  2A18               	goto	u3401
  7123  0217  2A19               	goto	u3400
  7124  0218                     u3401:
  7125  0218  2A35               	goto	l2442
  7126  0219                     u3400:
  7127  0219                     l2438:
  7128  0219  083A               	movf	___flmul@prod,w
  7129  021A  00AE               	movwf	??___flmul
  7130  021B  083B               	movf	___flmul@prod+1,w
  7131  021C  00AF               	movwf	??___flmul+1
  7132  021D  083C               	movf	___flmul@prod+2,w
  7133  021E  00B0               	movwf	??___flmul+2
  7134  021F  083D               	movf	___flmul@prod+3,w
  7135  0220  00B1               	movwf	??___flmul+3
  7136  0221  3001               	movlw	1
  7137  0222  00B2               	movwf	??___flmul+4
  7138  0223                     u3415:
  7139  0223  37B1               	asrf	??___flmul+3,f
  7140  0224  0CB0               	rrf	??___flmul+2,f
  7141  0225  0CAF               	rrf	??___flmul+1,f
  7142  0226  0CAE               	rrf	??___flmul,f
  7143  0227                     u3410:
  7144  0227  0BB2               	decfsz	??___flmul+4,f
  7145  0228  2A23               	goto	u3415
  7146  0229  0831               	movf	??___flmul+3,w
  7147  022A  00BD               	movwf	___flmul@prod+3
  7148  022B  0830               	movf	??___flmul+2,w
  7149  022C  00BC               	movwf	___flmul@prod+2
  7150  022D  082F               	movf	??___flmul+1,w
  7151  022E  00BB               	movwf	___flmul@prod+1
  7152  022F  082E               	movf	??___flmul,w
  7153  0230  00BA               	movwf	___flmul@prod
  7154  0231                     l2440:
  7155  0231  3001               	movlw	1
  7156  0232  07BE               	addwf	___flmul@temp,f
  7157  0233  3000               	movlw	0
  7158  0234  3DBF               	addwfc	___flmul@temp+1,f
  7159  0235                     l2442:
  7160  0235  083F               	movf	___flmul@temp+1,w
  7161  0236  3A80               	xorlw	128
  7162  0237  00AE               	movwf	??___flmul
  7163  0238  3080               	movlw	128
  7164  0239  022E               	subwf	??___flmul,w
  7165  023A  1D03               	skipz
  7166  023B  2A3E               	goto	u3425
  7167  023C  30FF               	movlw	255
  7168  023D  023E               	subwf	___flmul@temp,w
  7169  023E                     u3425:
  7170  023E  1C03               	skipc
  7171  023F  2A41               	goto	u3421
  7172  0240  2A42               	goto	u3420
  7173  0241                     u3421:
  7174  0241  2A4C               	goto	l2446
  7175  0242                     u3420:
  7176  0242                     l2444:
  7177  0242  307F               	movlw	127
  7178  0243  0140               	movlb	0	; select bank0
  7179  0244  00BD               	movwf	___flmul@prod+3
  7180  0245  3080               	movlw	128
  7181  0246  00BC               	movwf	___flmul@prod+2
  7182  0247  3000               	movlw	0
  7183  0248  00BB               	movwf	___flmul@prod+1
  7184  0249  3000               	movlw	0
  7185  024A  00BA               	movwf	___flmul@prod
  7186  024B  2A7B               	goto	l657
  7187  024C                     l2446:
  7188  024C  0140               	movlb	0	; select bank0
  7189  024D  083F               	movf	___flmul@temp+1,w
  7190  024E  3A80               	xorlw	128
  7191  024F  00AE               	movwf	??___flmul
  7192  0250  3080               	movlw	128
  7193  0251  022E               	subwf	??___flmul,w
  7194  0252  1D03               	skipz
  7195  0253  2A56               	goto	u3435
  7196  0254  3001               	movlw	1
  7197  0255  023E               	subwf	___flmul@temp,w
  7198  0256                     u3435:
  7199  0256  1803               	skipnc
  7200  0257  2A59               	goto	u3431
  7201  0258  2A5A               	goto	u3430
  7202  0259                     u3431:
  7203  0259  2A65               	goto	l2452
  7204  025A                     u3430:
  7205  025A                     l2448:
  7206  025A  3000               	movlw	0
  7207  025B  0140               	movlb	0	; select bank0
  7208  025C  00BD               	movwf	___flmul@prod+3
  7209  025D  3000               	movlw	0
  7210  025E  00BC               	movwf	___flmul@prod+2
  7211  025F  3000               	movlw	0
  7212  0260  00BB               	movwf	___flmul@prod+1
  7213  0261  3000               	movlw	0
  7214  0262  00BA               	movwf	___flmul@prod
  7215  0263                     l2450:
  7216  0263  01B3               	clrf	___flmul@sign
  7217  0264  2A7B               	goto	l657
  7218  0265                     l2452:
  7219  0265  0140               	movlb	0	; select bank0
  7220  0266  083E               	movf	___flmul@temp,w
  7221  0267  00AE               	movwf	??___flmul
  7222  0268  082E               	movf	??___flmul,w
  7223  0269  00B9               	movwf	___flmul@bexp
  7224  026A  30FF               	movlw	255
  7225  026B  05BA               	andwf	___flmul@prod,f
  7226  026C  30FF               	movlw	255
  7227  026D  05BB               	andwf	___flmul@prod+1,f
  7228  026E  307F               	movlw	127
  7229  026F  05BC               	andwf	___flmul@prod+2,f
  7230  0270  3000               	movlw	0
  7231  0271  05BD               	andwf	___flmul@prod+3,f
  7232  0272                     l2454:
  7233  0272  1C39               	btfss	___flmul@bexp,0
  7234  0273  2A75               	goto	u3441
  7235  0274  2A76               	goto	u3440
  7236  0275                     u3441:
  7237  0275  2A77               	goto	l2458
  7238  0276                     u3440:
  7239  0276                     l2456:
  7240  0276  17BC               	bsf	___flmul@prod+2,7
  7241  0277                     l2458:
  7242  0277  3639               	lsrf	___flmul@bexp,w
  7243  0278  00AE               	movwf	??___flmul
  7244  0279  082E               	movf	??___flmul,w
  7245  027A  00BD               	movwf	___flmul@prod+3
  7246  027B                     l657:
  7247  027B  0833               	movf	___flmul@sign,w
  7248  027C  00AE               	movwf	??___flmul
  7249  027D  082E               	movf	??___flmul,w
  7250  027E  04BD               	iorwf	___flmul@prod+3,f
  7251  027F                     l2460:
  7252  027F  083D               	movf	___flmul@prod+3,w
  7253  0280  00A9               	movwf	?___flmul+3
  7254  0281  083C               	movf	___flmul@prod+2,w
  7255  0282  00A8               	movwf	?___flmul+2
  7256  0283  083B               	movf	___flmul@prod+1,w
  7257  0284  00A7               	movwf	?___flmul+1
  7258  0285  083A               	movf	___flmul@prod,w
  7259  0286  00A6               	movwf	?___flmul
  7260  0287                     l645:
  7261  0287  0008               	return
  7262  0288                     __end_of___flmul:
  7263                           
  7264                           	psect	text23
  7265  161C                     __ptext23:	
  7266 ;; *************** function __Umul8_16 *****************
  7267 ;; Defined at:
  7268 ;;		line 4 in file "C:\Program Files\Microchip\xc8\v2.32\pic\sources\c99\common\Umul8_16.c"
  7269 ;; Parameters:    Size  Location     Type
  7270 ;;  multiplier      1    wreg     unsigned char 
  7271 ;;  multiplicand    1    1[COMMON] unsigned char 
  7272 ;; Auto vars:     Size  Location     Type
  7273 ;;  multiplier      1    9[COMMON] unsigned char 
  7274 ;;  word_mpld       2    7[COMMON] unsigned int 
  7275 ;;  product         2    5[COMMON] unsigned int 
  7276 ;; Return value:  Size  Location     Type
  7277 ;;                  2    1[COMMON] unsigned int 
  7278 ;; Registers used:
  7279 ;;		wreg, status,2, status,0
  7280 ;; Tracked objects:
  7281 ;;		On entry : 0/0
  7282 ;;		On exit  : 0/0
  7283 ;;		Unchanged: 0/0
  7284 ;; Data sizes:     COMMON   BANK0   BANK1   BANK2   BANK3   BANK4   BANK5   BANK6   BANK7   BANK8   BANK9  BANK10  BANK1
      +1  BANK12  BANK13  BANK14  BANK15  BANK16  BANK17  BANK18  BANK19  BANK20  BANK21  BANK22  BANK23  BANK24  BANK25
  7285 ;;      Params:         2       0       0       0       0       0       0       0       0       0       0       0       
      +0       0       0       0       0       0       0       0       0       0       0       0       0       0       0
  7286 ;;      Locals:         5       0       0       0       0       0       0       0       0       0       0       0       
      +0       0       0       0       0       0       0       0       0       0       0       0       0       0       0
  7287 ;;      Temps:          2       0       0       0       0       0       0       0       0       0       0       0       
      +0       0       0       0       0       0       0       0       0       0       0       0       0       0       0
  7288 ;;      Totals:         9       0       0       0       0       0       0       0       0       0       0       0       
      +0       0       0       0       0       0       0       0       0       0       0       0       0       0       0
  7289 ;;Total ram usage:        9 bytes
  7290 ;; Hardware stack levels used: 1
  7291 ;; Hardware stack levels required when called: 1
  7292 ;; This function calls:
  7293 ;;		Nothing
  7294 ;; This function is called by:
  7295 ;;		___flmul
  7296 ;; This function uses a non-reentrant model
  7297 ;;
  7298                           
  7299                           
  7300                           ;psect for function __Umul8_16
  7301  161C                     __Umul8_16:
  7302                           
  7303                           ;incstack = 0
  7304                           ; Regs used in __Umul8_16: [wreg+status,2+status,0]
  7305                           ;__Umul8_16@multiplier stored from wreg
  7306  161C  00F9               	movwf	__Umul8_16@multiplier
  7307  161D                     l2196:
  7308  161D  01F5               	clrf	__Umul8_16@product
  7309  161E  01F6               	clrf	__Umul8_16@product+1
  7310  161F                     l2198:
  7311  161F  0871               	movf	__Umul8_16@multiplicand,w
  7312  1620  00F3               	movwf	??__Umul8_16
  7313  1621  01F4               	clrf	??__Umul8_16+1
  7314  1622  0873               	movf	??__Umul8_16,w
  7315  1623  00F7               	movwf	__Umul8_16@word_mpld
  7316  1624  0874               	movf	??__Umul8_16+1,w
  7317  1625  00F8               	movwf	__Umul8_16@word_mpld+1
  7318  1626                     l2200:
  7319  1626  1C79               	btfss	__Umul8_16@multiplier,0
  7320  1627  2E29               	goto	u2891
  7321  1628  2E2A               	goto	u2890
  7322  1629                     u2891:
  7323  1629  2E2E               	goto	l664
  7324  162A                     u2890:
  7325  162A                     l2202:
  7326  162A  0877               	movf	__Umul8_16@word_mpld,w
  7327  162B  07F5               	addwf	__Umul8_16@product,f
  7328  162C  0878               	movf	__Umul8_16@word_mpld+1,w
  7329  162D  3DF6               	addwfc	__Umul8_16@product+1,f
  7330  162E                     l664:
  7331  162E  3001               	movlw	1
  7332  162F                     u2905:
  7333  162F  35F7               	lslf	__Umul8_16@word_mpld,f
  7334  1630  0DF8               	rlf	__Umul8_16@word_mpld+1,f
  7335  1631  0B89               	decfsz	9,f
  7336  1632  2E2F               	goto	u2905
  7337  1633  1003               	clrc
  7338  1634  0CF9               	rrf	__Umul8_16@multiplier,f
  7339  1635                     l2204:
  7340  1635  0879               	movf	__Umul8_16@multiplier,w
  7341  1636  1D03               	btfss	3,2
  7342  1637  2E39               	goto	u2911
  7343  1638  2E3A               	goto	u2910
  7344  1639                     u2911:
  7345  1639  2E26               	goto	l2200
  7346  163A                     u2910:
  7347  163A                     l2206:
  7348  163A  0876               	movf	__Umul8_16@product+1,w
  7349  163B  00F2               	movwf	?__Umul8_16+1
  7350  163C  0875               	movf	__Umul8_16@product,w
  7351  163D  00F1               	movwf	?__Umul8_16
  7352  163E                     l666:
  7353  163E  0008               	return
  7354  163F                     __end_of__Umul8_16:
  7355                           
  7356                           	psect	text24
  7357  0831                     __ptext24:	
  7358 ;; *************** function ___flge *****************
  7359 ;; Defined at:
  7360 ;;		line 4 in file "C:\Program Files\Microchip\xc8\v2.32\pic\sources\c99\common\flge.c"
  7361 ;; Parameters:    Size  Location     Type
  7362 ;;  ff1             4    1[COMMON] unsigned int 
  7363 ;;  ff2             4    5[COMMON] unsigned int 
  7364 ;; Auto vars:     Size  Location     Type
  7365 ;;		None
  7366 ;; Return value:  Size  Location     Type
  7367 ;;		None               void
  7368 ;; Registers used:
  7369 ;;		wreg, status,2, status,0
  7370 ;; Tracked objects:
  7371 ;;		On entry : 0/0
  7372 ;;		On exit  : 0/0
  7373 ;;		Unchanged: 0/0
  7374 ;; Data sizes:     COMMON   BANK0   BANK1   BANK2   BANK3   BANK4   BANK5   BANK6   BANK7   BANK8   BANK9  BANK10  BANK1
      +1  BANK12  BANK13  BANK14  BANK15  BANK16  BANK17  BANK18  BANK19  BANK20  BANK21  BANK22  BANK23  BANK24  BANK25
  7375 ;;      Params:         8       0       0       0       0       0       0       0       0       0       0       0       
      +0       0       0       0       0       0       0       0       0       0       0       0       0       0       0
  7376 ;;      Locals:         0       0       0       0       0       0       0       0       0       0       0       0       
      +0       0       0       0       0       0       0       0       0       0       0       0       0       0       0
  7377 ;;      Temps:          4       0       0       0       0       0       0       0       0       0       0       0       
      +0       0       0       0       0       0       0       0       0       0       0       0       0       0       0
  7378 ;;      Totals:        12       0       0       0       0       0       0       0       0       0       0       0       
      +0       0       0       0       0       0       0       0       0       0       0       0       0       0       0
  7379 ;;Total ram usage:       12 bytes
  7380 ;; Hardware stack levels used: 1
  7381 ;; Hardware stack levels required when called: 1
  7382 ;; This function calls:
  7383 ;;		Nothing
  7384 ;; This function is called by:
  7385 ;;		_roundf
  7386 ;; This function uses a non-reentrant model
  7387 ;;
  7388                           
  7389                           
  7390                           ;psect for function ___flge
  7391  0831                     ___flge:
  7392  0831                     l2290:	
  7393                           ;incstack = 0
  7394                           ; Regs used in ___flge: [wreg+status,2+status,0]
  7395                           
  7396  0831  3000               	movlw	0
  7397  0832  0571               	andwf	___flge@ff1,w
  7398  0833  00F9               	movwf	??___flge
  7399  0834  3000               	movlw	0
  7400  0835  0572               	andwf	___flge@ff1+1,w
  7401  0836  00FA               	movwf	??___flge+1
  7402  0837  3080               	movlw	128
  7403  0838  0573               	andwf	___flge@ff1+2,w
  7404  0839  00FB               	movwf	??___flge+2
  7405  083A  307F               	movlw	127
  7406  083B  0574               	andwf	___flge@ff1+3,w
  7407  083C  00FC               	movwf	??___flge+3
  7408  083D  087C               	movf	??___flge+3,w
  7409  083E  047B               	iorwf	??___flge+2,w
  7410  083F  047A               	iorwf	??___flge+1,w
  7411  0840  0479               	iorwf	??___flge,w
  7412  0841  1D03               	skipz
  7413  0842  2844               	goto	u3131
  7414  0843  2845               	goto	u3130
  7415  0844                     u3131:
  7416  0844  284D               	goto	l426
  7417  0845                     u3130:
  7418  0845                     l2292:
  7419  0845  3000               	movlw	0
  7420  0846  00F4               	movwf	___flge@ff1+3
  7421  0847  3000               	movlw	0
  7422  0848  00F3               	movwf	___flge@ff1+2
  7423  0849  3000               	movlw	0
  7424  084A  00F2               	movwf	___flge@ff1+1
  7425  084B  3000               	movlw	0
  7426  084C  00F1               	movwf	___flge@ff1
  7427  084D                     l426:
  7428  084D  3000               	movlw	0
  7429  084E  0575               	andwf	___flge@ff2,w
  7430  084F  00F9               	movwf	??___flge
  7431  0850  3000               	movlw	0
  7432  0851  0576               	andwf	___flge@ff2+1,w
  7433  0852  00FA               	movwf	??___flge+1
  7434  0853  3080               	movlw	128
  7435  0854  0577               	andwf	___flge@ff2+2,w
  7436  0855  00FB               	movwf	??___flge+2
  7437  0856  307F               	movlw	127
  7438  0857  0578               	andwf	___flge@ff2+3,w
  7439  0858  00FC               	movwf	??___flge+3
  7440  0859  087C               	movf	??___flge+3,w
  7441  085A  047B               	iorwf	??___flge+2,w
  7442  085B  047A               	iorwf	??___flge+1,w
  7443  085C  0479               	iorwf	??___flge,w
  7444  085D  1D03               	skipz
  7445  085E  2860               	goto	u3141
  7446  085F  2861               	goto	u3140
  7447  0860                     u3141:
  7448  0860  2869               	goto	l2296
  7449  0861                     u3140:
  7450  0861                     l2294:
  7451  0861  3000               	movlw	0
  7452  0862  00F8               	movwf	___flge@ff2+3
  7453  0863  3000               	movlw	0
  7454  0864  00F7               	movwf	___flge@ff2+2
  7455  0865  3000               	movlw	0
  7456  0866  00F6               	movwf	___flge@ff2+1
  7457  0867  3000               	movlw	0
  7458  0868  00F5               	movwf	___flge@ff2
  7459  0869                     l2296:
  7460  0869  1FF4               	btfss	___flge@ff1+3,7
  7461  086A  286C               	goto	u3151
  7462  086B  286D               	goto	u3150
  7463  086C                     u3151:
  7464  086C  2885               	goto	l2300
  7465  086D                     u3150:
  7466  086D                     l2298:
  7467  086D  3000               	movlw	0
  7468  086E  00F9               	movwf	??___flge
  7469  086F  3000               	movlw	0
  7470  0870  00FA               	movwf	??___flge+1
  7471  0871  3000               	movlw	0
  7472  0872  00FB               	movwf	??___flge+2
  7473  0873  3080               	movlw	128
  7474  0874  00FC               	movwf	??___flge+3
  7475  0875  0871               	movf	___flge@ff1,w
  7476  0876  02F9               	subwf	??___flge,f
  7477  0877  0872               	movf	___flge@ff1+1,w
  7478  0878  3BFA               	subwfb	??___flge+1,f
  7479  0879  0873               	movf	___flge@ff1+2,w
  7480  087A  3BFB               	subwfb	??___flge+2,f
  7481  087B  0874               	movf	___flge@ff1+3,w
  7482  087C  3BFC               	subwfb	??___flge+3,f
  7483  087D  087C               	movf	??___flge+3,w
  7484  087E  00F4               	movwf	___flge@ff1+3
  7485  087F  087B               	movf	??___flge+2,w
  7486  0880  00F3               	movwf	___flge@ff1+2
  7487  0881  087A               	movf	??___flge+1,w
  7488  0882  00F2               	movwf	___flge@ff1+1
  7489  0883  0879               	movf	??___flge,w
  7490  0884  00F1               	movwf	___flge@ff1
  7491  0885                     l2300:
  7492  0885  1FF8               	btfss	___flge@ff2+3,7
  7493  0886  2888               	goto	u3161
  7494  0887  2889               	goto	u3160
  7495  0888                     u3161:
  7496  0888  28A1               	goto	l429
  7497  0889                     u3160:
  7498  0889                     l2302:
  7499  0889  3000               	movlw	0
  7500  088A  00F9               	movwf	??___flge
  7501  088B  3000               	movlw	0
  7502  088C  00FA               	movwf	??___flge+1
  7503  088D  3000               	movlw	0
  7504  088E  00FB               	movwf	??___flge+2
  7505  088F  3080               	movlw	128
  7506  0890  00FC               	movwf	??___flge+3
  7507  0891  0875               	movf	___flge@ff2,w
  7508  0892  02F9               	subwf	??___flge,f
  7509  0893  0876               	movf	___flge@ff2+1,w
  7510  0894  3BFA               	subwfb	??___flge+1,f
  7511  0895  0877               	movf	___flge@ff2+2,w
  7512  0896  3BFB               	subwfb	??___flge+2,f
  7513  0897  0878               	movf	___flge@ff2+3,w
  7514  0898  3BFC               	subwfb	??___flge+3,f
  7515  0899  087C               	movf	??___flge+3,w
  7516  089A  00F8               	movwf	___flge@ff2+3
  7517  089B  087B               	movf	??___flge+2,w
  7518  089C  00F7               	movwf	___flge@ff2+2
  7519  089D  087A               	movf	??___flge+1,w
  7520  089E  00F6               	movwf	___flge@ff2+1
  7521  089F  0879               	movf	??___flge,w
  7522  08A0  00F5               	movwf	___flge@ff2
  7523  08A1                     l429:
  7524  08A1  3080               	movlw	128
  7525  08A2  06F4               	xorwf	___flge@ff1+3,f
  7526  08A3  3080               	movlw	128
  7527  08A4  06F8               	xorwf	___flge@ff2+3,f
  7528  08A5  0878               	movf	___flge@ff2+3,w
  7529  08A6  0274               	subwf	___flge@ff1+3,w
  7530  08A7  1D03               	skipz
  7531  08A8  28B3               	goto	u3175
  7532  08A9  0877               	movf	___flge@ff2+2,w
  7533  08AA  0273               	subwf	___flge@ff1+2,w
  7534  08AB  1D03               	skipz
  7535  08AC  28B3               	goto	u3175
  7536  08AD  0876               	movf	___flge@ff2+1,w
  7537  08AE  0272               	subwf	___flge@ff1+1,w
  7538  08AF  1D03               	skipz
  7539  08B0  28B3               	goto	u3175
  7540  08B1  0875               	movf	___flge@ff2,w
  7541  08B2  0271               	subwf	___flge@ff1,w
  7542  08B3                     u3175:
  7543  08B3  1803               	skipnc
  7544  08B4  28B6               	goto	u3171
  7545  08B5  28B7               	goto	u3170
  7546  08B6                     u3171:
  7547  08B6  28B9               	goto	l2306
  7548  08B7                     u3170:
  7549  08B7                     l2304:
  7550  08B7  1003               	clrc
  7551  08B8  28BA               	goto	l434
  7552  08B9                     l2306:
  7553  08B9  1403               	setc
  7554  08BA                     l434:
  7555  08BA  0008               	return
  7556  08BB                     __end_of___flge:
  7557                           
  7558                           	psect	text25
  7559  178B                     __ptext25:	
  7560 ;; *************** function ___fltol *****************
  7561 ;; Defined at:
  7562 ;;		line 43 in file "C:\Program Files\Microchip\xc8\v2.32\pic\sources\c99\common\fltol.c"
  7563 ;; Parameters:    Size  Location     Type
  7564 ;;  f1              4   58[BANK0 ] unsigned int 
  7565 ;; Auto vars:     Size  Location     Type
  7566 ;;  exp1            1   68[BANK0 ] unsigned char 
  7567 ;;  sign1           1   67[BANK0 ] unsigned char 
  7568 ;; Return value:  Size  Location     Type
  7569 ;;                  4   58[BANK0 ] long 
  7570 ;; Registers used:
  7571 ;;		wreg, status,2, status,0
  7572 ;; Tracked objects:
  7573 ;;		On entry : 0/0
  7574 ;;		On exit  : 0/0
  7575 ;;		Unchanged: 0/0
  7576 ;; Data sizes:     COMMON   BANK0   BANK1   BANK2   BANK3   BANK4   BANK5   BANK6   BANK7   BANK8   BANK9  BANK10  BANK1
      +1  BANK12  BANK13  BANK14  BANK15  BANK16  BANK17  BANK18  BANK19  BANK20  BANK21  BANK22  BANK23  BANK24  BANK25
  7577 ;;      Params:         0       4       0       0       0       0       0       0       0       0       0       0       
      +0       0       0       0       0       0       0       0       0       0       0       0       0       0       0
  7578 ;;      Locals:         0       2       0       0       0       0       0       0       0       0       0       0       
      +0       0       0       0       0       0       0       0       0       0       0       0       0       0       0
  7579 ;;      Temps:          0       5       0       0       0       0       0       0       0       0       0       0       
      +0       0       0       0       0       0       0       0       0       0       0       0       0       0       0
  7580 ;;      Totals:         0      11       0       0       0       0       0       0       0       0       0       0       
      +0       0       0       0       0       0       0       0       0       0       0       0       0       0       0
  7581 ;;Total ram usage:       11 bytes
  7582 ;; Hardware stack levels used: 1
  7583 ;; Hardware stack levels required when called: 1
  7584 ;; This function calls:
  7585 ;;		Nothing
  7586 ;; This function is called by:
  7587 ;;		_lroundf
  7588 ;; This function uses a non-reentrant model
  7589 ;;
  7590                           
  7591                           
  7592                           ;psect for function ___fltol
  7593  178B                     ___fltol:
  7594  178B                     l2520:	
  7595                           ;incstack = 0
  7596                           ; Regs used in ___fltol: [wreg+status,2+status,0]
  7597                           
  7598  178B  1003               	clrc
  7599  178C  0140               	movlb	0	; select bank0
  7600  178D  0D5C               	rlf	___fltol@f1+2,w
  7601  178E  0D5D               	rlf	___fltol@f1+3,w
  7602  178F  00DE               	movwf	??___fltol
  7603  1790  085E               	movf	??___fltol,w
  7604  1791  00E4               	movwf	___fltol@exp1
  7605  1792  0864               	movf	___fltol@exp1,w
  7606  1793  1D03               	btfss	3,2
  7607  1794  2F96               	goto	u3511
  7608  1795  2F97               	goto	u3510
  7609  1796                     u3511:
  7610  1796  2FA0               	goto	l2526
  7611  1797                     u3510:
  7612  1797                     l2522:
  7613  1797  3000               	movlw	0
  7614  1798  00DD               	movwf	?___fltol+3
  7615  1799  3000               	movlw	0
  7616  179A  00DC               	movwf	?___fltol+2
  7617  179B  3000               	movlw	0
  7618  179C  00DB               	movwf	?___fltol+1
  7619  179D  3000               	movlw	0
  7620  179E  00DA               	movwf	?___fltol
  7621  179F  2FFF               	goto	l442
  7622  17A0                     l2526:
  7623  17A0  085A               	movf	___fltol@f1,w
  7624  17A1  00DE               	movwf	??___fltol
  7625  17A2  085B               	movf	___fltol@f1+1,w
  7626  17A3  00DF               	movwf	??___fltol+1
  7627  17A4  085C               	movf	___fltol@f1+2,w
  7628  17A5  00E0               	movwf	??___fltol+2
  7629  17A6  085D               	movf	___fltol@f1+3,w
  7630  17A7  00E1               	movwf	??___fltol+3
  7631  17A8  301F               	movlw	31
  7632  17A9                     u3525:
  7633  17A9  36E1               	lsrf	??___fltol+3,f
  7634  17AA  0CE0               	rrf	??___fltol+2,f
  7635  17AB  0CDF               	rrf	??___fltol+1,f
  7636  17AC  0CDE               	rrf	??___fltol,f
  7637  17AD                     u3520:
  7638  17AD  0B89               	decfsz	9,f
  7639  17AE  2FA9               	goto	u3525
  7640  17AF  085E               	movf	??___fltol,w
  7641  17B0  00E2               	movwf	??___fltol+4
  7642  17B1  0862               	movf	??___fltol+4,w
  7643  17B2  00E3               	movwf	___fltol@sign1
  7644  17B3                     l2528:
  7645  17B3  17DC               	bsf	___fltol@f1+2,7
  7646  17B4                     l2530:
  7647  17B4  30FF               	movlw	255
  7648  17B5  05DA               	andwf	___fltol@f1,f
  7649  17B6  30FF               	movlw	255
  7650  17B7  05DB               	andwf	___fltol@f1+1,f
  7651  17B8  30FF               	movlw	255
  7652  17B9  05DC               	andwf	___fltol@f1+2,f
  7653  17BA  3000               	movlw	0
  7654  17BB  05DD               	andwf	___fltol@f1+3,f
  7655  17BC                     l2532:
  7656  17BC  3096               	movlw	150
  7657  17BD  02E4               	subwf	___fltol@exp1,f
  7658  17BE                     l2534:
  7659  17BE  1FE4               	btfss	___fltol@exp1,7
  7660  17BF  2FC1               	goto	u3531
  7661  17C0  2FC2               	goto	u3530
  7662  17C1                     u3531:
  7663  17C1  2FDA               	goto	l2544
  7664  17C2                     u3530:
  7665  17C2                     l2536:
  7666  17C2  0864               	movf	___fltol@exp1,w
  7667  17C3  3A80               	xorlw	128
  7668  17C4  3E97               	addlw	151
  7669  17C5  1803               	skipnc
  7670  17C6  2FC8               	goto	u3541
  7671  17C7  2FC9               	goto	u3540
  7672  17C8                     u3541:
  7673  17C8  2FCA               	goto	l2542
  7674  17C9                     u3540:
  7675  17C9  2F97               	goto	l2522
  7676  17CA                     l2542:
  7677  17CA  3001               	movlw	1
  7678  17CB                     u3555:
  7679  17CB  36DD               	lsrf	___fltol@f1+3,f
  7680  17CC  0CDC               	rrf	___fltol@f1+2,f
  7681  17CD  0CDB               	rrf	___fltol@f1+1,f
  7682  17CE  0CDA               	rrf	___fltol@f1,f
  7683  17CF  0B89               	decfsz	9,f
  7684  17D0  2FCB               	goto	u3555
  7685  17D1  3001               	movlw	1
  7686  17D2  00DE               	movwf	??___fltol
  7687  17D3  085E               	movf	??___fltol,w
  7688  17D4  07E4               	addwf	___fltol@exp1,f
  7689  17D5  1D03               	btfss	3,2
  7690  17D6  2FD8               	goto	u3561
  7691  17D7  2FD9               	goto	u3560
  7692  17D8                     u3561:
  7693  17D8  2FCA               	goto	l2542
  7694  17D9                     u3560:
  7695  17D9  2FEF               	goto	l2552
  7696  17DA                     l2544:
  7697  17DA  3020               	movlw	32
  7698  17DB  0264               	subwf	___fltol@exp1,w
  7699  17DC  1C03               	skipc
  7700  17DD  2FDF               	goto	u3571
  7701  17DE  2FE0               	goto	u3570
  7702  17DF                     u3571:
  7703  17DF  2FEA               	goto	l449
  7704  17E0                     u3570:
  7705  17E0  2F97               	goto	l2522
  7706  17E1                     l2550:
  7707  17E1  3001               	movlw	1
  7708  17E2                     u3585:
  7709  17E2  35DA               	lslf	___fltol@f1,f
  7710  17E3  0DDB               	rlf	___fltol@f1+1,f
  7711  17E4  0DDC               	rlf	___fltol@f1+2,f
  7712  17E5  0DDD               	rlf	___fltol@f1+3,f
  7713  17E6  0B89               	decfsz	9,f
  7714  17E7  2FE2               	goto	u3585
  7715  17E8  3001               	movlw	1
  7716  17E9  02E4               	subwf	___fltol@exp1,f
  7717  17EA                     l449:
  7718  17EA  0864               	movf	___fltol@exp1,w
  7719  17EB  1D03               	btfss	3,2
  7720  17EC  2FEE               	goto	u3591
  7721  17ED  2FEF               	goto	u3590
  7722  17EE                     u3591:
  7723  17EE  2FE1               	goto	l2550
  7724  17EF                     u3590:
  7725  17EF                     l2552:
  7726  17EF  0863               	movf	___fltol@sign1,w
  7727  17F0  1903               	btfsc	3,2
  7728  17F1  2FF3               	goto	u3601
  7729  17F2  2FF4               	goto	u3600
  7730  17F3                     u3601:
  7731  17F3  2FFF               	goto	l452
  7732  17F4                     u3600:
  7733  17F4                     l2554:
  7734  17F4  09DA               	comf	___fltol@f1,f
  7735  17F5  09DB               	comf	___fltol@f1+1,f
  7736  17F6  09DC               	comf	___fltol@f1+2,f
  7737  17F7  09DD               	comf	___fltol@f1+3,f
  7738  17F8  0ADA               	incf	___fltol@f1,f
  7739  17F9  1903               	skipnz
  7740  17FA  0ADB               	incf	___fltol@f1+1,f
  7741  17FB  1903               	skipnz
  7742  17FC  0ADC               	incf	___fltol@f1+2,f
  7743  17FD  1903               	skipnz
  7744  17FE  0ADD               	incf	___fltol@f1+3,f
  7745  17FF                     l452:
  7746  17FF                     l442:
  7747  17FF  0008               	return
  7748  1800                     __end_of___fltol:
  7749                           
  7750                           	psect	text26
  7751  08BB                     __ptext26:	
  7752 ;; *************** function ___xxtofl *****************
  7753 ;; Defined at:
  7754 ;;		line 10 in file "C:\Program Files\Microchip\xc8\v2.32\pic\sources\c99\common\xxtofl.c"
  7755 ;; Parameters:    Size  Location     Type
  7756 ;;  sign            1    wreg     unsigned char 
  7757 ;;  val             4    1[COMMON] long 
  7758 ;; Auto vars:     Size  Location     Type
  7759 ;;  sign            1    0[BANK0 ] unsigned char 
  7760 ;;  arg             4    2[BANK0 ] unsigned long 
  7761 ;;  exp             1    1[BANK0 ] unsigned char 
  7762 ;; Return value:  Size  Location     Type
  7763 ;;                  4    1[COMMON] unsigned char 
  7764 ;; Registers used:
  7765 ;;		wreg, status,2, status,0
  7766 ;; Tracked objects:
  7767 ;;		On entry : 0/0
  7768 ;;		On exit  : 0/0
  7769 ;;		Unchanged: 0/0
  7770 ;; Data sizes:     COMMON   BANK0   BANK1   BANK2   BANK3   BANK4   BANK5   BANK6   BANK7   BANK8   BANK9  BANK10  BANK1
      +1  BANK12  BANK13  BANK14  BANK15  BANK16  BANK17  BANK18  BANK19  BANK20  BANK21  BANK22  BANK23  BANK24  BANK25
  7771 ;;      Params:         4       0       0       0       0       0       0       0       0       0       0       0       
      +0       0       0       0       0       0       0       0       0       0       0       0       0       0       0
  7772 ;;      Locals:         0       6       0       0       0       0       0       0       0       0       0       0       
      +0       0       0       0       0       0       0       0       0       0       0       0       0       0       0
  7773 ;;      Temps:          4       0       0       0       0       0       0       0       0       0       0       0       
      +0       0       0       0       0       0       0       0       0       0       0       0       0       0       0
  7774 ;;      Totals:         8       6       0       0       0       0       0       0       0       0       0       0       
      +0       0       0       0       0       0       0       0       0       0       0       0       0       0       0
  7775 ;;Total ram usage:       14 bytes
  7776 ;; Hardware stack levels used: 1
  7777 ;; Hardware stack levels required when called: 1
  7778 ;; This function calls:
  7779 ;;		Nothing
  7780 ;; This function is called by:
  7781 ;;		_main
  7782 ;; This function uses a non-reentrant model
  7783 ;;
  7784                           
  7785                           
  7786                           ;psect for function ___xxtofl
  7787  08BB                     ___xxtofl:
  7788                           
  7789                           ;incstack = 0
  7790                           ; Regs used in ___xxtofl: [wreg+status,2+status,0]
  7791                           ;___xxtofl@sign stored from wreg
  7792  08BB  0140               	movlb	0	; select bank0
  7793  08BC  00A0               	movwf	___xxtofl@sign
  7794  08BD                     l2804:
  7795  08BD  0820               	movf	___xxtofl@sign,w
  7796  08BE  1903               	btfsc	3,2
  7797  08BF  28C1               	goto	u4071
  7798  08C0  28C2               	goto	u4070
  7799  08C1                     u4071:
  7800  08C1  28D6               	goto	l2810
  7801  08C2                     u4070:
  7802  08C2                     l2806:
  7803  08C2  1FF4               	btfss	___xxtofl@val+3,7
  7804  08C3  28C5               	goto	u4081
  7805  08C4  28C6               	goto	u4080
  7806  08C5                     u4081:
  7807  08C5  28D6               	goto	l2810
  7808  08C6                     u4080:
  7809  08C6                     l2808:
  7810  08C6  0971               	comf	___xxtofl@val,w
  7811  08C7  00A2               	movwf	___xxtofl@arg
  7812  08C8  0972               	comf	___xxtofl@val+1,w
  7813  08C9  00A3               	movwf	___xxtofl@arg+1
  7814  08CA  0973               	comf	___xxtofl@val+2,w
  7815  08CB  00A4               	movwf	___xxtofl@arg+2
  7816  08CC  0974               	comf	___xxtofl@val+3,w
  7817  08CD  00A5               	movwf	___xxtofl@arg+3
  7818  08CE  0AA2               	incf	___xxtofl@arg,f
  7819  08CF  1903               	skipnz
  7820  08D0  0AA3               	incf	___xxtofl@arg+1,f
  7821  08D1  1903               	skipnz
  7822  08D2  0AA4               	incf	___xxtofl@arg+2,f
  7823  08D3  1903               	skipnz
  7824  08D4  0AA5               	incf	___xxtofl@arg+3,f
  7825  08D5  28DE               	goto	l689
  7826  08D6                     l2810:
  7827  08D6  0874               	movf	___xxtofl@val+3,w
  7828  08D7  00A5               	movwf	___xxtofl@arg+3
  7829  08D8  0873               	movf	___xxtofl@val+2,w
  7830  08D9  00A4               	movwf	___xxtofl@arg+2
  7831  08DA  0872               	movf	___xxtofl@val+1,w
  7832  08DB  00A3               	movwf	___xxtofl@arg+1
  7833  08DC  0871               	movf	___xxtofl@val,w
  7834  08DD  00A2               	movwf	___xxtofl@arg
  7835  08DE                     l689:
  7836  08DE  0874               	movf	___xxtofl@val+3,w
  7837  08DF  0473               	iorwf	___xxtofl@val+2,w
  7838  08E0  0472               	iorwf	___xxtofl@val+1,w
  7839  08E1  0471               	iorwf	___xxtofl@val,w
  7840  08E2  1D03               	skipz
  7841  08E3  28E5               	goto	u4091
  7842  08E4  28E6               	goto	u4090
  7843  08E5                     u4091:
  7844  08E5  28EF               	goto	l2816
  7845  08E6                     u4090:
  7846  08E6                     l2812:
  7847  08E6  3000               	movlw	0
  7848  08E7  00F4               	movwf	?___xxtofl+3
  7849  08E8  3000               	movlw	0
  7850  08E9  00F3               	movwf	?___xxtofl+2
  7851  08EA  3000               	movlw	0
  7852  08EB  00F2               	movwf	?___xxtofl+1
  7853  08EC  3000               	movlw	0
  7854  08ED  00F1               	movwf	?___xxtofl
  7855  08EE  2967               	goto	l691
  7856  08EF                     l2816:
  7857  08EF  3096               	movlw	150
  7858  08F0  00F5               	movwf	??___xxtofl
  7859  08F1  0875               	movf	??___xxtofl,w
  7860  08F2  00A1               	movwf	___xxtofl@exp
  7861  08F3  28FF               	goto	l2820
  7862  08F4                     l2818:
  7863  08F4  3001               	movlw	1
  7864  08F5  00F5               	movwf	??___xxtofl
  7865  08F6  0875               	movf	??___xxtofl,w
  7866  08F7  07A1               	addwf	___xxtofl@exp,f
  7867  08F8  3001               	movlw	1
  7868  08F9                     u4105:
  7869  08F9  36A5               	lsrf	___xxtofl@arg+3,f
  7870  08FA  0CA4               	rrf	___xxtofl@arg+2,f
  7871  08FB  0CA3               	rrf	___xxtofl@arg+1,f
  7872  08FC  0CA2               	rrf	___xxtofl@arg,f
  7873  08FD  0B89               	decfsz	9,f
  7874  08FE  28F9               	goto	u4105
  7875  08FF                     l2820:
  7876  08FF  30FE               	movlw	254
  7877  0900  0525               	andwf	___xxtofl@arg+3,w
  7878  0901  1D03               	btfss	3,2
  7879  0902  2904               	goto	u4111
  7880  0903  2905               	goto	u4110
  7881  0904                     u4111:
  7882  0904  28F4               	goto	l2818
  7883  0905                     u4110:
  7884  0905  2919               	goto	l695
  7885  0906                     l2822:
  7886  0906  3001               	movlw	1
  7887  0907  00F5               	movwf	??___xxtofl
  7888  0908  0875               	movf	??___xxtofl,w
  7889  0909  07A1               	addwf	___xxtofl@exp,f
  7890  090A                     l2824:
  7891  090A  3001               	movlw	1
  7892  090B  07A2               	addwf	___xxtofl@arg,f
  7893  090C  3000               	movlw	0
  7894  090D  3DA3               	addwfc	___xxtofl@arg+1,f
  7895  090E  3000               	movlw	0
  7896  090F  3DA4               	addwfc	___xxtofl@arg+2,f
  7897  0910  3000               	movlw	0
  7898  0911  3DA5               	addwfc	___xxtofl@arg+3,f
  7899  0912                     l2826:
  7900  0912  3001               	movlw	1
  7901  0913                     u4125:
  7902  0913  36A5               	lsrf	___xxtofl@arg+3,f
  7903  0914  0CA4               	rrf	___xxtofl@arg+2,f
  7904  0915  0CA3               	rrf	___xxtofl@arg+1,f
  7905  0916  0CA2               	rrf	___xxtofl@arg,f
  7906  0917  0B89               	decfsz	9,f
  7907  0918  2913               	goto	u4125
  7908  0919                     l695:
  7909  0919  30FF               	movlw	255
  7910  091A  0525               	andwf	___xxtofl@arg+3,w
  7911  091B  1D03               	btfss	3,2
  7912  091C  291E               	goto	u4131
  7913  091D  291F               	goto	u4130
  7914  091E                     u4131:
  7915  091E  2906               	goto	l2822
  7916  091F                     u4130:
  7917  091F  2929               	goto	l2830
  7918  0920                     l2828:
  7919  0920  3001               	movlw	1
  7920  0921  02A1               	subwf	___xxtofl@exp,f
  7921  0922  3001               	movlw	1
  7922  0923                     u4145:
  7923  0923  35A2               	lslf	___xxtofl@arg,f
  7924  0924  0DA3               	rlf	___xxtofl@arg+1,f
  7925  0925  0DA4               	rlf	___xxtofl@arg+2,f
  7926  0926  0DA5               	rlf	___xxtofl@arg+3,f
  7927  0927  0B89               	decfsz	9,f
  7928  0928  2923               	goto	u4145
  7929  0929                     l2830:
  7930  0929  1BA4               	btfsc	___xxtofl@arg+2,7
  7931  092A  292C               	goto	u4151
  7932  092B  292D               	goto	u4150
  7933  092C                     u4151:
  7934  092C  2933               	goto	l702
  7935  092D                     u4150:
  7936  092D                     l2832:
  7937  092D  3002               	movlw	2
  7938  092E  0221               	subwf	___xxtofl@exp,w
  7939  092F  1803               	skipnc
  7940  0930  2932               	goto	u4161
  7941  0931  2933               	goto	u4160
  7942  0932                     u4161:
  7943  0932  2920               	goto	l2828
  7944  0933                     u4160:
  7945  0933                     l702:
  7946  0933  1821               	btfsc	___xxtofl@exp,0
  7947  0934  2936               	goto	u4171
  7948  0935  2937               	goto	u4170
  7949  0936                     u4171:
  7950  0936  293F               	goto	l703
  7951  0937                     u4170:
  7952  0937                     l2834:
  7953  0937  30FF               	movlw	255
  7954  0938  05A2               	andwf	___xxtofl@arg,f
  7955  0939  30FF               	movlw	255
  7956  093A  05A3               	andwf	___xxtofl@arg+1,f
  7957  093B  307F               	movlw	127
  7958  093C  05A4               	andwf	___xxtofl@arg+2,f
  7959  093D  30FF               	movlw	255
  7960  093E  05A5               	andwf	___xxtofl@arg+3,f
  7961  093F                     l703:
  7962  093F  1003               	clrc
  7963  0940  0CA1               	rrf	___xxtofl@exp,f
  7964  0941                     l2836:
  7965  0941  0821               	movf	___xxtofl@exp,w
  7966  0942  00F5               	movwf	??___xxtofl
  7967  0943  01F6               	clrf	??___xxtofl+1
  7968  0944  01F7               	clrf	??___xxtofl+2
  7969  0945  01F8               	clrf	??___xxtofl+3
  7970  0946  3018               	movlw	24
  7971  0947                     u4185:
  7972  0947  35F5               	lslf	??___xxtofl,f
  7973  0948  0DF6               	rlf	??___xxtofl+1,f
  7974  0949  0DF7               	rlf	??___xxtofl+2,f
  7975  094A  0DF8               	rlf	??___xxtofl+3,f
  7976  094B                     u4180:
  7977  094B  0B89               	decfsz	9,f
  7978  094C  2947               	goto	u4185
  7979  094D  0875               	movf	??___xxtofl,w
  7980  094E  04A2               	iorwf	___xxtofl@arg,f
  7981  094F  0876               	movf	??___xxtofl+1,w
  7982  0950  04A3               	iorwf	___xxtofl@arg+1,f
  7983  0951  0877               	movf	??___xxtofl+2,w
  7984  0952  04A4               	iorwf	___xxtofl@arg+2,f
  7985  0953  0878               	movf	??___xxtofl+3,w
  7986  0954  04A5               	iorwf	___xxtofl@arg+3,f
  7987  0955                     l2838:
  7988  0955  0820               	movf	___xxtofl@sign,w
  7989  0956  1903               	btfsc	3,2
  7990  0957  2959               	goto	u4191
  7991  0958  295A               	goto	u4190
  7992  0959                     u4191:
  7993  0959  295F               	goto	l2844
  7994  095A                     u4190:
  7995  095A                     l2840:
  7996  095A  1FF4               	btfss	___xxtofl@val+3,7
  7997  095B  295D               	goto	u4201
  7998  095C  295E               	goto	u4200
  7999  095D                     u4201:
  8000  095D  295F               	goto	l2844
  8001  095E                     u4200:
  8002  095E                     l2842:
  8003  095E  17A5               	bsf	___xxtofl@arg+3,7
  8004  095F                     l2844:
  8005  095F  0825               	movf	___xxtofl@arg+3,w
  8006  0960  00F4               	movwf	?___xxtofl+3
  8007  0961  0824               	movf	___xxtofl@arg+2,w
  8008  0962  00F3               	movwf	?___xxtofl+2
  8009  0963  0823               	movf	___xxtofl@arg+1,w
  8010  0964  00F2               	movwf	?___xxtofl+1
  8011  0965  0822               	movf	___xxtofl@arg,w
  8012  0966  00F1               	movwf	?___xxtofl
  8013  0967                     l691:
  8014  0967  0008               	return
  8015  0968                     __end_of___xxtofl:
  8016                           
  8017                           	psect	text27
  8018  1667                     __ptext27:	
  8019 ;; *************** function ___lmul *****************
  8020 ;; Defined at:
  8021 ;;		line 15 in file "C:\Program Files\Microchip\xc8\v2.32\pic\sources\c99\common\Umul32.c"
  8022 ;; Parameters:    Size  Location     Type
  8023 ;;  multiplier      4    1[COMMON] unsigned long 
  8024 ;;  multiplicand    4    5[COMMON] unsigned long 
  8025 ;; Auto vars:     Size  Location     Type
  8026 ;;  product         4    9[COMMON] unsigned long 
  8027 ;; Return value:  Size  Location     Type
  8028 ;;                  4    1[COMMON] unsigned long 
  8029 ;; Registers used:
  8030 ;;		wreg, status,2, status,0
  8031 ;; Tracked objects:
  8032 ;;		On entry : 0/0
  8033 ;;		On exit  : 0/0
  8034 ;;		Unchanged: 0/0
  8035 ;; Data sizes:     COMMON   BANK0   BANK1   BANK2   BANK3   BANK4   BANK5   BANK6   BANK7   BANK8   BANK9  BANK10  BANK1
      +1  BANK12  BANK13  BANK14  BANK15  BANK16  BANK17  BANK18  BANK19  BANK20  BANK21  BANK22  BANK23  BANK24  BANK25
  8036 ;;      Params:         8       0       0       0       0       0       0       0       0       0       0       0       
      +0       0       0       0       0       0       0       0       0       0       0       0       0       0       0
  8037 ;;      Locals:         4       0       0       0       0       0       0       0       0       0       0       0       
      +0       0       0       0       0       0       0       0       0       0       0       0       0       0       0
  8038 ;;      Temps:          0       0       0       0       0       0       0       0       0       0       0       0       
      +0       0       0       0       0       0       0       0       0       0       0       0       0       0       0
  8039 ;;      Totals:        12       0       0       0       0       0       0       0       0       0       0       0       
      +0       0       0       0       0       0       0       0       0       0       0       0       0       0       0
  8040 ;;Total ram usage:       12 bytes
  8041 ;; Hardware stack levels used: 1
  8042 ;; Hardware stack levels required when called: 1
  8043 ;; This function calls:
  8044 ;;		Nothing
  8045 ;; This function is called by:
  8046 ;;		_main
  8047 ;; This function uses a non-reentrant model
  8048 ;;
  8049                           
  8050                           
  8051                           ;psect for function ___lmul
  8052  1667                     ___lmul:
  8053  1667                     l2650:	
  8054                           ;incstack = 0
  8055                           ; Regs used in ___lmul: [wreg+status,2+status,0]
  8056                           
  8057  1667  3000               	movlw	0
  8058  1668  00FC               	movwf	___lmul@product+3
  8059  1669  3000               	movlw	0
  8060  166A  00FB               	movwf	___lmul@product+2
  8061  166B  3000               	movlw	0
  8062  166C  00FA               	movwf	___lmul@product+1
  8063  166D  3000               	movlw	0
  8064  166E  00F9               	movwf	___lmul@product
  8065  166F                     l2652:
  8066  166F  1C71               	btfss	___lmul@multiplier,0
  8067  1670  2E72               	goto	u3741
  8068  1671  2E73               	goto	u3740
  8069  1672                     u3741:
  8070  1672  2E7B               	goto	l2656
  8071  1673                     u3740:
  8072  1673                     l2654:
  8073  1673  0875               	movf	___lmul@multiplicand,w
  8074  1674  07F9               	addwf	___lmul@product,f
  8075  1675  0876               	movf	___lmul@multiplicand+1,w
  8076  1676  3DFA               	addwfc	___lmul@product+1,f
  8077  1677  0877               	movf	___lmul@multiplicand+2,w
  8078  1678  3DFB               	addwfc	___lmul@product+2,f
  8079  1679  0878               	movf	___lmul@multiplicand+3,w
  8080  167A  3DFC               	addwfc	___lmul@product+3,f
  8081  167B                     l2656:
  8082  167B  3001               	movlw	1
  8083  167C                     u3755:
  8084  167C  35F5               	lslf	___lmul@multiplicand,f
  8085  167D  0DF6               	rlf	___lmul@multiplicand+1,f
  8086  167E  0DF7               	rlf	___lmul@multiplicand+2,f
  8087  167F  0DF8               	rlf	___lmul@multiplicand+3,f
  8088  1680  0B89               	decfsz	9,f
  8089  1681  2E7C               	goto	u3755
  8090  1682                     l2658:
  8091  1682  3001               	movlw	1
  8092  1683                     u3765:
  8093  1683  36F4               	lsrf	___lmul@multiplier+3,f
  8094  1684  0CF3               	rrf	___lmul@multiplier+2,f
  8095  1685  0CF2               	rrf	___lmul@multiplier+1,f
  8096  1686  0CF1               	rrf	___lmul@multiplier,f
  8097  1687  0B89               	decfsz	9,f
  8098  1688  2E83               	goto	u3765
  8099  1689  0874               	movf	___lmul@multiplier+3,w
  8100  168A  0473               	iorwf	___lmul@multiplier+2,w
  8101  168B  0472               	iorwf	___lmul@multiplier+1,w
  8102  168C  0471               	iorwf	___lmul@multiplier,w
  8103  168D  1D03               	skipz
  8104  168E  2E90               	goto	u3771
  8105  168F  2E91               	goto	u3770
  8106  1690                     u3771:
  8107  1690  2E6F               	goto	l2652
  8108  1691                     u3770:
  8109  1691                     l2660:
  8110  1691  087C               	movf	___lmul@product+3,w
  8111  1692  00F4               	movwf	?___lmul+3
  8112  1693  087B               	movf	___lmul@product+2,w
  8113  1694  00F3               	movwf	?___lmul+2
  8114  1695  087A               	movf	___lmul@product+1,w
  8115  1696  00F2               	movwf	?___lmul+1
  8116  1697  0879               	movf	___lmul@product,w
  8117  1698  00F1               	movwf	?___lmul
  8118  1699                     l262:
  8119  1699  0008               	return
  8120  169A                     __end_of___lmul:
  8121                           
  8122                           	psect	text28
  8123  0E4C                     __ptext28:	
  8124 ;; *************** function ___fldiv *****************
  8125 ;; Defined at:
  8126 ;;		line 8 in file "C:\Program Files\Microchip\xc8\v2.32\pic\sources\c99\common\sprcdiv.c"
  8127 ;; Parameters:    Size  Location     Type
  8128 ;;  a               4   32[BANK0 ] unsigned long 
  8129 ;;  b               4   36[BANK0 ] unsigned long 
  8130 ;; Auto vars:     Size  Location     Type
  8131 ;;  grs             4   52[BANK0 ] unsigned long 
  8132 ;;  rem             4   45[BANK0 ] unsigned long 
  8133 ;;  new_exp         2   50[BANK0 ] int 
  8134 ;;  aexp            1   57[BANK0 ] unsigned char 
  8135 ;;  bexp            1   56[BANK0 ] unsigned char 
  8136 ;;  sign            1   49[BANK0 ] unsigned char 
  8137 ;; Return value:  Size  Location     Type
  8138 ;;                  4   32[BANK0 ] unsigned char 
  8139 ;; Registers used:
  8140 ;;		wreg, status,2, status,0
  8141 ;; Tracked objects:
  8142 ;;		On entry : 0/0
  8143 ;;		On exit  : 0/0
  8144 ;;		Unchanged: 0/0
  8145 ;; Data sizes:     COMMON   BANK0   BANK1   BANK2   BANK3   BANK4   BANK5   BANK6   BANK7   BANK8   BANK9  BANK10  BANK1
      +1  BANK12  BANK13  BANK14  BANK15  BANK16  BANK17  BANK18  BANK19  BANK20  BANK21  BANK22  BANK23  BANK24  BANK25
  8146 ;;      Params:         0       8       0       0       0       0       0       0       0       0       0       0       
      +0       0       0       0       0       0       0       0       0       0       0       0       0       0       0
  8147 ;;      Locals:         0      13       0       0       0       0       0       0       0       0       0       0       
      +0       0       0       0       0       0       0       0       0       0       0       0       0       0       0
  8148 ;;      Temps:          0       5       0       0       0       0       0       0       0       0       0       0       
      +0       0       0       0       0       0       0       0       0       0       0       0       0       0       0
  8149 ;;      Totals:         0      26       0       0       0       0       0       0       0       0       0       0       
      +0       0       0       0       0       0       0       0       0       0       0       0       0       0       0
  8150 ;;Total ram usage:       26 bytes
  8151 ;; Hardware stack levels used: 1
  8152 ;; Hardware stack levels required when called: 1
  8153 ;; This function calls:
  8154 ;;		Nothing
  8155 ;; This function is called by:
  8156 ;;		_main
  8157 ;; This function uses a non-reentrant model
  8158 ;;
  8159                           
  8160                           
  8161                           ;psect for function ___fldiv
  8162  0E4C                     ___fldiv:
  8163  0E4C                     l2664:	
  8164                           ;incstack = 0
  8165                           ; Regs used in ___fldiv: [wreg+status,2+status,0]
  8166                           
  8167  0E4C  0140               	movlb	0	; select bank0
  8168  0E4D  0847               	movf	___fldiv@b+3,w
  8169  0E4E  3980               	andlw	128
  8170  0E4F  00C8               	movwf	??___fldiv
  8171  0E50  0848               	movf	??___fldiv,w
  8172  0E51  00D1               	movwf	___fldiv@sign
  8173  0E52                     l2666:
  8174  0E52  3547               	lslf	___fldiv@b+3,w
  8175  0E53  00C8               	movwf	??___fldiv
  8176  0E54  0848               	movf	??___fldiv,w
  8177  0E55  00D8               	movwf	___fldiv@bexp
  8178  0E56                     l2668:
  8179  0E56  1FC6               	btfss	___fldiv@b+2,7
  8180  0E57  2E59               	goto	u3781
  8181  0E58  2E5A               	goto	u3780
  8182  0E59                     u3781:
  8183  0E59  2E5B               	goto	l2672
  8184  0E5A                     u3780:
  8185  0E5A                     l2670:
  8186  0E5A  1458               	bsf	___fldiv@bexp,0
  8187  0E5B                     l2672:
  8188  0E5B  0858               	movf	___fldiv@bexp,w
  8189  0E5C  1903               	btfsc	3,2
  8190  0E5D  2E5F               	goto	u3791
  8191  0E5E  2E60               	goto	u3790
  8192  0E5F                     u3791:
  8193  0E5F  2E70               	goto	l2682
  8194  0E60                     u3790:
  8195  0E60                     l2674:
  8196  0E60  0A58               	incf	___fldiv@bexp,w
  8197  0E61  1D03               	btfss	3,2
  8198  0E62  2E64               	goto	u3801
  8199  0E63  2E65               	goto	u3800
  8200  0E64                     u3801:
  8201  0E64  2E6D               	goto	l2678
  8202  0E65                     u3800:
  8203  0E65                     l2676:
  8204  0E65  3000               	movlw	0
  8205  0E66  00C7               	movwf	___fldiv@b+3
  8206  0E67  3000               	movlw	0
  8207  0E68  00C6               	movwf	___fldiv@b+2
  8208  0E69  3000               	movlw	0
  8209  0E6A  00C5               	movwf	___fldiv@b+1
  8210  0E6B  3000               	movlw	0
  8211  0E6C  00C4               	movwf	___fldiv@b
  8212  0E6D                     l2678:
  8213  0E6D  17C6               	bsf	___fldiv@b+2,7
  8214  0E6E                     l2680:
  8215  0E6E  01C7               	clrf	___fldiv@b+3
  8216  0E6F  2E78               	goto	l2684
  8217  0E70                     l2682:
  8218  0E70  3000               	movlw	0
  8219  0E71  00C7               	movwf	___fldiv@b+3
  8220  0E72  3000               	movlw	0
  8221  0E73  00C6               	movwf	___fldiv@b+2
  8222  0E74  3000               	movlw	0
  8223  0E75  00C5               	movwf	___fldiv@b+1
  8224  0E76  3000               	movlw	0
  8225  0E77  00C4               	movwf	___fldiv@b
  8226  0E78                     l2684:
  8227  0E78  0843               	movf	___fldiv@a+3,w
  8228  0E79  3980               	andlw	128
  8229  0E7A  00C8               	movwf	??___fldiv
  8230  0E7B  0848               	movf	??___fldiv,w
  8231  0E7C  06D1               	xorwf	___fldiv@sign,f
  8232  0E7D                     l2686:
  8233  0E7D  3543               	lslf	___fldiv@a+3,w
  8234  0E7E  00C8               	movwf	??___fldiv
  8235  0E7F  0848               	movf	??___fldiv,w
  8236  0E80  00D9               	movwf	___fldiv@aexp
  8237  0E81                     l2688:
  8238  0E81  1FC2               	btfss	___fldiv@a+2,7
  8239  0E82  2E84               	goto	u3811
  8240  0E83  2E85               	goto	u3810
  8241  0E84                     u3811:
  8242  0E84  2E86               	goto	l2692
  8243  0E85                     u3810:
  8244  0E85                     l2690:
  8245  0E85  1459               	bsf	___fldiv@aexp,0
  8246  0E86                     l2692:
  8247  0E86  0859               	movf	___fldiv@aexp,w
  8248  0E87  1903               	btfsc	3,2
  8249  0E88  2E8A               	goto	u3821
  8250  0E89  2E8B               	goto	u3820
  8251  0E8A                     u3821:
  8252  0E8A  2E9B               	goto	l2702
  8253  0E8B                     u3820:
  8254  0E8B                     l2694:
  8255  0E8B  0A59               	incf	___fldiv@aexp,w
  8256  0E8C  1D03               	btfss	3,2
  8257  0E8D  2E8F               	goto	u3831
  8258  0E8E  2E90               	goto	u3830
  8259  0E8F                     u3831:
  8260  0E8F  2E98               	goto	l2698
  8261  0E90                     u3830:
  8262  0E90                     l2696:
  8263  0E90  3000               	movlw	0
  8264  0E91  00C3               	movwf	___fldiv@a+3
  8265  0E92  3000               	movlw	0
  8266  0E93  00C2               	movwf	___fldiv@a+2
  8267  0E94  3000               	movlw	0
  8268  0E95  00C1               	movwf	___fldiv@a+1
  8269  0E96  3000               	movlw	0
  8270  0E97  00C0               	movwf	___fldiv@a
  8271  0E98                     l2698:
  8272  0E98  17C2               	bsf	___fldiv@a+2,7
  8273  0E99                     l2700:
  8274  0E99  01C3               	clrf	___fldiv@a+3
  8275  0E9A  2EA3               	goto	l605
  8276  0E9B                     l2702:
  8277  0E9B  3000               	movlw	0
  8278  0E9C  00C3               	movwf	___fldiv@a+3
  8279  0E9D  3000               	movlw	0
  8280  0E9E  00C2               	movwf	___fldiv@a+2
  8281  0E9F  3000               	movlw	0
  8282  0EA0  00C1               	movwf	___fldiv@a+1
  8283  0EA1  3000               	movlw	0
  8284  0EA2  00C0               	movwf	___fldiv@a
  8285  0EA3                     l605:
  8286  0EA3  0843               	movf	___fldiv@a+3,w
  8287  0EA4  0442               	iorwf	___fldiv@a+2,w
  8288  0EA5  0441               	iorwf	___fldiv@a+1,w
  8289  0EA6  0440               	iorwf	___fldiv@a,w
  8290  0EA7  1D03               	skipz
  8291  0EA8  2EAA               	goto	u3841
  8292  0EA9  2EAB               	goto	u3840
  8293  0EAA                     u3841:
  8294  0EAA  2EC4               	goto	l2712
  8295  0EAB                     u3840:
  8296  0EAB                     l2704:
  8297  0EAB  3000               	movlw	0
  8298  0EAC  00C7               	movwf	___fldiv@b+3
  8299  0EAD  3000               	movlw	0
  8300  0EAE  00C6               	movwf	___fldiv@b+2
  8301  0EAF  3000               	movlw	0
  8302  0EB0  00C5               	movwf	___fldiv@b+1
  8303  0EB1  3000               	movlw	0
  8304  0EB2  00C4               	movwf	___fldiv@b
  8305  0EB3  3080               	movlw	128
  8306  0EB4  04C6               	iorwf	___fldiv@b+2,f
  8307  0EB5  307F               	movlw	127
  8308  0EB6  04C7               	iorwf	___fldiv@b+3,f
  8309  0EB7                     l2706:
  8310  0EB7  0851               	movf	___fldiv@sign,w
  8311  0EB8  00C8               	movwf	??___fldiv
  8312  0EB9  0848               	movf	??___fldiv,w
  8313  0EBA  04C7               	iorwf	___fldiv@b+3,f
  8314  0EBB                     l2708:
  8315  0EBB  0847               	movf	___fldiv@b+3,w
  8316  0EBC  00C3               	movwf	?___fldiv+3
  8317  0EBD  0846               	movf	___fldiv@b+2,w
  8318  0EBE  00C2               	movwf	?___fldiv+2
  8319  0EBF  0845               	movf	___fldiv@b+1,w
  8320  0EC0  00C1               	movwf	?___fldiv+1
  8321  0EC1  0844               	movf	___fldiv@b,w
  8322  0EC2  00C0               	movwf	?___fldiv
  8323  0EC3  2FFF               	goto	l607
  8324  0EC4                     l2712:
  8325  0EC4  0858               	movf	___fldiv@bexp,w
  8326  0EC5  1D03               	btfss	3,2
  8327  0EC6  2EC8               	goto	u3851
  8328  0EC7  2EC9               	goto	u3850
  8329  0EC8                     u3851:
  8330  0EC8  2ED2               	goto	l2718
  8331  0EC9                     u3850:
  8332  0EC9                     l2714:
  8333  0EC9  3000               	movlw	0
  8334  0ECA  00C3               	movwf	?___fldiv+3
  8335  0ECB  3000               	movlw	0
  8336  0ECC  00C2               	movwf	?___fldiv+2
  8337  0ECD  3000               	movlw	0
  8338  0ECE  00C1               	movwf	?___fldiv+1
  8339  0ECF  3000               	movlw	0
  8340  0ED0  00C0               	movwf	?___fldiv
  8341  0ED1  2FFF               	goto	l607
  8342  0ED2                     l2718:
  8343  0ED2  0858               	movf	___fldiv@bexp,w
  8344  0ED3  00C8               	movwf	??___fldiv
  8345  0ED4  01C9               	clrf	??___fldiv+1
  8346  0ED5  0849               	movf	??___fldiv+1,w
  8347  0ED6  00CB               	movwf	??___fldiv+3
  8348  0ED7  0859               	movf	___fldiv@aexp,w
  8349  0ED8  0248               	subwf	??___fldiv,w
  8350  0ED9  00CA               	movwf	??___fldiv+2
  8351  0EDA  1C03               	skipc
  8352  0EDB  03CB               	decf	??___fldiv+3,f
  8353  0EDC  084A               	movf	??___fldiv+2,w
  8354  0EDD  3E7F               	addlw	127
  8355  0EDE  00D2               	movwf	___fldiv@new_exp
  8356  0EDF  3000               	movlw	0
  8357  0EE0  3D4B               	addwfc	??___fldiv+3,w
  8358  0EE1  00D3               	movwf	___fldiv@new_exp+1
  8359  0EE2                     l2720:
  8360  0EE2  0847               	movf	___fldiv@b+3,w
  8361  0EE3  00D0               	movwf	___fldiv@rem+3
  8362  0EE4  0846               	movf	___fldiv@b+2,w
  8363  0EE5  00CF               	movwf	___fldiv@rem+2
  8364  0EE6  0845               	movf	___fldiv@b+1,w
  8365  0EE7  00CE               	movwf	___fldiv@rem+1
  8366  0EE8  0844               	movf	___fldiv@b,w
  8367  0EE9  00CD               	movwf	___fldiv@rem
  8368  0EEA                     l2722:
  8369  0EEA  3000               	movlw	0
  8370  0EEB  00C7               	movwf	___fldiv@b+3
  8371  0EEC  3000               	movlw	0
  8372  0EED  00C6               	movwf	___fldiv@b+2
  8373  0EEE  3000               	movlw	0
  8374  0EEF  00C5               	movwf	___fldiv@b+1
  8375  0EF0  3000               	movlw	0
  8376  0EF1  00C4               	movwf	___fldiv@b
  8377  0EF2                     l2724:
  8378  0EF2  3000               	movlw	0
  8379  0EF3  00D7               	movwf	___fldiv@grs+3
  8380  0EF4  3000               	movlw	0
  8381  0EF5  00D6               	movwf	___fldiv@grs+2
  8382  0EF6  3000               	movlw	0
  8383  0EF7  00D5               	movwf	___fldiv@grs+1
  8384  0EF8  3000               	movlw	0
  8385  0EF9  00D4               	movwf	___fldiv@grs
  8386  0EFA                     l2726:
  8387  0EFA  01D9               	clrf	___fldiv@aexp
  8388  0EFB  2F3A               	goto	l2746
  8389  0EFC                     l2728:
  8390  0EFC  0859               	movf	___fldiv@aexp,w
  8391  0EFD  1903               	btfsc	3,2
  8392  0EFE  2F00               	goto	u3861
  8393  0EFF  2F01               	goto	u3860
  8394  0F00                     u3861:
  8395  0F00  2F1B               	goto	l2738
  8396  0F01                     u3860:
  8397  0F01                     l2730:
  8398  0F01  3001               	movlw	1
  8399  0F02                     u3875:
  8400  0F02  35CD               	lslf	___fldiv@rem,f
  8401  0F03  0DCE               	rlf	___fldiv@rem+1,f
  8402  0F04  0DCF               	rlf	___fldiv@rem+2,f
  8403  0F05  0DD0               	rlf	___fldiv@rem+3,f
  8404  0F06  0B89               	decfsz	9,f
  8405  0F07  2F02               	goto	u3875
  8406  0F08  3001               	movlw	1
  8407  0F09                     u3885:
  8408  0F09  35C4               	lslf	___fldiv@b,f
  8409  0F0A  0DC5               	rlf	___fldiv@b+1,f
  8410  0F0B  0DC6               	rlf	___fldiv@b+2,f
  8411  0F0C  0DC7               	rlf	___fldiv@b+3,f
  8412  0F0D  0B89               	decfsz	9,f
  8413  0F0E  2F09               	goto	u3885
  8414  0F0F                     l2732:
  8415  0F0F  1FD7               	btfss	___fldiv@grs+3,7
  8416  0F10  2F12               	goto	u3891
  8417  0F11  2F13               	goto	u3890
  8418  0F12                     u3891:
  8419  0F12  2F14               	goto	l2736
  8420  0F13                     u3890:
  8421  0F13                     l2734:
  8422  0F13  1444               	bsf	___fldiv@b,0
  8423  0F14                     l2736:
  8424  0F14  3001               	movlw	1
  8425  0F15                     u3905:
  8426  0F15  35D4               	lslf	___fldiv@grs,f
  8427  0F16  0DD5               	rlf	___fldiv@grs+1,f
  8428  0F17  0DD6               	rlf	___fldiv@grs+2,f
  8429  0F18  0DD7               	rlf	___fldiv@grs+3,f
  8430  0F19  0B89               	decfsz	9,f
  8431  0F1A  2F15               	goto	u3905
  8432  0F1B                     l2738:
  8433  0F1B  0843               	movf	___fldiv@a+3,w
  8434  0F1C  0250               	subwf	___fldiv@rem+3,w
  8435  0F1D  1D03               	skipz
  8436  0F1E  2F29               	goto	u3915
  8437  0F1F  0842               	movf	___fldiv@a+2,w
  8438  0F20  024F               	subwf	___fldiv@rem+2,w
  8439  0F21  1D03               	skipz
  8440  0F22  2F29               	goto	u3915
  8441  0F23  0841               	movf	___fldiv@a+1,w
  8442  0F24  024E               	subwf	___fldiv@rem+1,w
  8443  0F25  1D03               	skipz
  8444  0F26  2F29               	goto	u3915
  8445  0F27  0840               	movf	___fldiv@a,w
  8446  0F28  024D               	subwf	___fldiv@rem,w
  8447  0F29                     u3915:
  8448  0F29  1C03               	skipc
  8449  0F2A  2F2C               	goto	u3911
  8450  0F2B  2F2D               	goto	u3910
  8451  0F2C                     u3911:
  8452  0F2C  2F36               	goto	l2744
  8453  0F2D                     u3910:
  8454  0F2D                     l2740:
  8455  0F2D  1757               	bsf	___fldiv@grs+3,6
  8456  0F2E                     l2742:
  8457  0F2E  0840               	movf	___fldiv@a,w
  8458  0F2F  02CD               	subwf	___fldiv@rem,f
  8459  0F30  0841               	movf	___fldiv@a+1,w
  8460  0F31  3BCE               	subwfb	___fldiv@rem+1,f
  8461  0F32  0842               	movf	___fldiv@a+2,w
  8462  0F33  3BCF               	subwfb	___fldiv@rem+2,f
  8463  0F34  0843               	movf	___fldiv@a+3,w
  8464  0F35  3BD0               	subwfb	___fldiv@rem+3,f
  8465  0F36                     l2744:
  8466  0F36  3001               	movlw	1
  8467  0F37  00C8               	movwf	??___fldiv
  8468  0F38  0848               	movf	??___fldiv,w
  8469  0F39  07D9               	addwf	___fldiv@aexp,f
  8470  0F3A                     l2746:
  8471  0F3A  301A               	movlw	26
  8472  0F3B  0259               	subwf	___fldiv@aexp,w
  8473  0F3C  1C03               	skipc
  8474  0F3D  2F3F               	goto	u3921
  8475  0F3E  2F40               	goto	u3920
  8476  0F3F                     u3921:
  8477  0F3F  2EFC               	goto	l2728
  8478  0F40                     u3920:
  8479  0F40                     l2748:
  8480  0F40  0850               	movf	___fldiv@rem+3,w
  8481  0F41  044F               	iorwf	___fldiv@rem+2,w
  8482  0F42  044E               	iorwf	___fldiv@rem+1,w
  8483  0F43  044D               	iorwf	___fldiv@rem,w
  8484  0F44  1903               	skipnz
  8485  0F45  2F47               	goto	u3931
  8486  0F46  2F48               	goto	u3930
  8487  0F47                     u3931:
  8488  0F47  2F61               	goto	l2762
  8489  0F48                     u3930:
  8490  0F48                     l2750:
  8491  0F48  1454               	bsf	___fldiv@grs,0
  8492  0F49  2F61               	goto	l2762
  8493  0F4A                     l2752:
  8494  0F4A  3001               	movlw	1
  8495  0F4B                     u3945:
  8496  0F4B  35C4               	lslf	___fldiv@b,f
  8497  0F4C  0DC5               	rlf	___fldiv@b+1,f
  8498  0F4D  0DC6               	rlf	___fldiv@b+2,f
  8499  0F4E  0DC7               	rlf	___fldiv@b+3,f
  8500  0F4F  0B89               	decfsz	9,f
  8501  0F50  2F4B               	goto	u3945
  8502  0F51                     l2754:
  8503  0F51  1FD7               	btfss	___fldiv@grs+3,7
  8504  0F52  2F54               	goto	u3951
  8505  0F53  2F55               	goto	u3950
  8506  0F54                     u3951:
  8507  0F54  2F56               	goto	l2758
  8508  0F55                     u3950:
  8509  0F55                     l2756:
  8510  0F55  1444               	bsf	___fldiv@b,0
  8511  0F56                     l2758:
  8512  0F56  3001               	movlw	1
  8513  0F57                     u3965:
  8514  0F57  35D4               	lslf	___fldiv@grs,f
  8515  0F58  0DD5               	rlf	___fldiv@grs+1,f
  8516  0F59  0DD6               	rlf	___fldiv@grs+2,f
  8517  0F5A  0DD7               	rlf	___fldiv@grs+3,f
  8518  0F5B  0B89               	decfsz	9,f
  8519  0F5C  2F57               	goto	u3965
  8520  0F5D                     l2760:
  8521  0F5D  30FF               	movlw	255
  8522  0F5E  07D2               	addwf	___fldiv@new_exp,f
  8523  0F5F  30FF               	movlw	255
  8524  0F60  3DD3               	addwfc	___fldiv@new_exp+1,f
  8525  0F61                     l2762:
  8526  0F61  1FC6               	btfss	___fldiv@b+2,7
  8527  0F62  2F64               	goto	u3971
  8528  0F63  2F65               	goto	u3970
  8529  0F64                     u3971:
  8530  0F64  2F4A               	goto	l2752
  8531  0F65                     u3970:
  8532  0F65                     l2764:
  8533  0F65  01D9               	clrf	___fldiv@aexp
  8534  0F66                     l2766:
  8535  0F66  1FD7               	btfss	___fldiv@grs+3,7
  8536  0F67  2F69               	goto	u3981
  8537  0F68  2F6A               	goto	u3980
  8538  0F69                     u3981:
  8539  0F69  2F86               	goto	l2774
  8540  0F6A                     u3980:
  8541  0F6A                     l2768:
  8542  0F6A  30FF               	movlw	255
  8543  0F6B  0554               	andwf	___fldiv@grs,w
  8544  0F6C  00C8               	movwf	??___fldiv
  8545  0F6D  30FF               	movlw	255
  8546  0F6E  0555               	andwf	___fldiv@grs+1,w
  8547  0F6F  00C9               	movwf	??___fldiv+1
  8548  0F70  30FF               	movlw	255
  8549  0F71  0556               	andwf	___fldiv@grs+2,w
  8550  0F72  00CA               	movwf	??___fldiv+2
  8551  0F73  307F               	movlw	127
  8552  0F74  0557               	andwf	___fldiv@grs+3,w
  8553  0F75  00CB               	movwf	??___fldiv+3
  8554  0F76  084B               	movf	??___fldiv+3,w
  8555  0F77  044A               	iorwf	??___fldiv+2,w
  8556  0F78  0449               	iorwf	??___fldiv+1,w
  8557  0F79  0448               	iorwf	??___fldiv,w
  8558  0F7A  1903               	skipnz
  8559  0F7B  2F7D               	goto	u3991
  8560  0F7C  2F7E               	goto	u3990
  8561  0F7D                     u3991:
  8562  0F7D  2F81               	goto	l621
  8563  0F7E                     u3990:
  8564  0F7E                     l2770:
  8565  0F7E  01D9               	clrf	___fldiv@aexp
  8566  0F7F  0AD9               	incf	___fldiv@aexp,f
  8567  0F80  2F86               	goto	l2774
  8568  0F81                     l621:
  8569  0F81  1C44               	btfss	___fldiv@b,0
  8570  0F82  2F84               	goto	u4001
  8571  0F83  2F85               	goto	u4000
  8572  0F84                     u4001:
  8573  0F84  2F86               	goto	l2774
  8574  0F85                     u4000:
  8575  0F85  2F7E               	goto	l2770
  8576  0F86                     l2774:
  8577  0F86  0859               	movf	___fldiv@aexp,w
  8578  0F87  1903               	btfsc	3,2
  8579  0F88  2F8A               	goto	u4011
  8580  0F89  2F8B               	goto	u4010
  8581  0F8A                     u4011:
  8582  0F8A  2FB3               	goto	l2784
  8583  0F8B                     u4010:
  8584  0F8B                     l2776:
  8585  0F8B  3001               	movlw	1
  8586  0F8C  07C4               	addwf	___fldiv@b,f
  8587  0F8D  3000               	movlw	0
  8588  0F8E  3DC5               	addwfc	___fldiv@b+1,f
  8589  0F8F  3000               	movlw	0
  8590  0F90  3DC6               	addwfc	___fldiv@b+2,f
  8591  0F91  3000               	movlw	0
  8592  0F92  3DC7               	addwfc	___fldiv@b+3,f
  8593  0F93                     l2778:
  8594  0F93  1C47               	btfss	___fldiv@b+3,0
  8595  0F94  2F96               	goto	u4021
  8596  0F95  2F97               	goto	u4020
  8597  0F96                     u4021:
  8598  0F96  2FB3               	goto	l2784
  8599  0F97                     u4020:
  8600  0F97                     l2780:
  8601  0F97  0844               	movf	___fldiv@b,w
  8602  0F98  00C8               	movwf	??___fldiv
  8603  0F99  0845               	movf	___fldiv@b+1,w
  8604  0F9A  00C9               	movwf	??___fldiv+1
  8605  0F9B  0846               	movf	___fldiv@b+2,w
  8606  0F9C  00CA               	movwf	??___fldiv+2
  8607  0F9D  0847               	movf	___fldiv@b+3,w
  8608  0F9E  00CB               	movwf	??___fldiv+3
  8609  0F9F  3001               	movlw	1
  8610  0FA0  00CC               	movwf	??___fldiv+4
  8611  0FA1                     u4035:
  8612  0FA1  37CB               	asrf	??___fldiv+3,f
  8613  0FA2  0CCA               	rrf	??___fldiv+2,f
  8614  0FA3  0CC9               	rrf	??___fldiv+1,f
  8615  0FA4  0CC8               	rrf	??___fldiv,f
  8616  0FA5                     u4030:
  8617  0FA5  0BCC               	decfsz	??___fldiv+4,f
  8618  0FA6  2FA1               	goto	u4035
  8619  0FA7  084B               	movf	??___fldiv+3,w
  8620  0FA8  00C7               	movwf	___fldiv@b+3
  8621  0FA9  084A               	movf	??___fldiv+2,w
  8622  0FAA  00C6               	movwf	___fldiv@b+2
  8623  0FAB  0849               	movf	??___fldiv+1,w
  8624  0FAC  00C5               	movwf	___fldiv@b+1
  8625  0FAD  0848               	movf	??___fldiv,w
  8626  0FAE  00C4               	movwf	___fldiv@b
  8627  0FAF                     l2782:
  8628  0FAF  3001               	movlw	1
  8629  0FB0  07D2               	addwf	___fldiv@new_exp,f
  8630  0FB1  3000               	movlw	0
  8631  0FB2  3DD3               	addwfc	___fldiv@new_exp+1,f
  8632  0FB3                     l2784:
  8633  0FB3  0853               	movf	___fldiv@new_exp+1,w
  8634  0FB4  3A80               	xorlw	128
  8635  0FB5  00C8               	movwf	??___fldiv
  8636  0FB6  3080               	movlw	128
  8637  0FB7  0248               	subwf	??___fldiv,w
  8638  0FB8  1D03               	skipz
  8639  0FB9  2FBC               	goto	u4045
  8640  0FBA  30FF               	movlw	255
  8641  0FBB  0252               	subwf	___fldiv@new_exp,w
  8642  0FBC                     u4045:
  8643  0FBC  1C03               	skipc
  8644  0FBD  2FBF               	goto	u4041
  8645  0FBE  2FC0               	goto	u4040
  8646  0FBF                     u4041:
  8647  0FBF  2FCD               	goto	l626
  8648  0FC0                     u4040:
  8649  0FC0                     l2786:
  8650  0FC0  30FF               	movlw	255
  8651  0FC1  0140               	movlb	0	; select bank0
  8652  0FC2  00D2               	movwf	___fldiv@new_exp
  8653  0FC3  3000               	movlw	0
  8654  0FC4  00D3               	movwf	___fldiv@new_exp+1
  8655  0FC5  3000               	movlw	0
  8656  0FC6  00C7               	movwf	___fldiv@b+3
  8657  0FC7  3000               	movlw	0
  8658  0FC8  00C6               	movwf	___fldiv@b+2
  8659  0FC9  3000               	movlw	0
  8660  0FCA  00C5               	movwf	___fldiv@b+1
  8661  0FCB  3000               	movlw	0
  8662  0FCC  00C4               	movwf	___fldiv@b
  8663  0FCD                     l626:
  8664  0FCD  0140               	movlb	0	; select bank0
  8665  0FCE  0853               	movf	___fldiv@new_exp+1,w
  8666  0FCF  3A80               	xorlw	128
  8667  0FD0  00C8               	movwf	??___fldiv
  8668  0FD1  3080               	movlw	128
  8669  0FD2  0248               	subwf	??___fldiv,w
  8670  0FD3  1D03               	skipz
  8671  0FD4  2FD7               	goto	u4055
  8672  0FD5  3001               	movlw	1
  8673  0FD6  0252               	subwf	___fldiv@new_exp,w
  8674  0FD7                     u4055:
  8675  0FD7  1803               	skipnc
  8676  0FD8  2FDA               	goto	u4051
  8677  0FD9  2FDB               	goto	u4050
  8678  0FDA                     u4051:
  8679  0FDA  2FE7               	goto	l627
  8680  0FDB                     u4050:
  8681  0FDB                     l2788:
  8682  0FDB  0140               	movlb	0	; select bank0
  8683  0FDC  01D2               	clrf	___fldiv@new_exp
  8684  0FDD  01D3               	clrf	___fldiv@new_exp+1
  8685  0FDE                     l2790:
  8686  0FDE  3000               	movlw	0
  8687  0FDF  00C7               	movwf	___fldiv@b+3
  8688  0FE0  3000               	movlw	0
  8689  0FE1  00C6               	movwf	___fldiv@b+2
  8690  0FE2  3000               	movlw	0
  8691  0FE3  00C5               	movwf	___fldiv@b+1
  8692  0FE4  3000               	movlw	0
  8693  0FE5  00C4               	movwf	___fldiv@b
  8694  0FE6                     l2792:
  8695  0FE6  01D1               	clrf	___fldiv@sign
  8696  0FE7                     l627:
  8697  0FE7  0140               	movlb	0	; select bank0
  8698  0FE8  0852               	movf	___fldiv@new_exp,w
  8699  0FE9  00C8               	movwf	??___fldiv
  8700  0FEA  0848               	movf	??___fldiv,w
  8701  0FEB  00D8               	movwf	___fldiv@bexp
  8702  0FEC                     l2794:
  8703  0FEC  1C58               	btfss	___fldiv@bexp,0
  8704  0FED  2FEF               	goto	u4061
  8705  0FEE  2FF0               	goto	u4060
  8706  0FEF                     u4061:
  8707  0FEF  2FF2               	goto	l2798
  8708  0FF0                     u4060:
  8709  0FF0                     l2796:
  8710  0FF0  17C6               	bsf	___fldiv@b+2,7
  8711  0FF1  2FF6               	goto	l629
  8712  0FF2                     l2798:
  8713  0FF2  307F               	movlw	127
  8714  0FF3  00C8               	movwf	??___fldiv
  8715  0FF4  0848               	movf	??___fldiv,w
  8716  0FF5  05C6               	andwf	___fldiv@b+2,f
  8717  0FF6                     l629:
  8718  0FF6  3658               	lsrf	___fldiv@bexp,w
  8719  0FF7  00C8               	movwf	??___fldiv
  8720  0FF8  0848               	movf	??___fldiv,w
  8721  0FF9  00C7               	movwf	___fldiv@b+3
  8722  0FFA  0851               	movf	___fldiv@sign,w
  8723  0FFB  00C8               	movwf	??___fldiv
  8724  0FFC  0848               	movf	??___fldiv,w
  8725  0FFD  04C7               	iorwf	___fldiv@b+3,f
  8726  0FFE  2EBB               	goto	l2708
  8727  0FFF                     l607:
  8728  0FFF  0008               	return
  8729  1000                     __end_of___fldiv:
  8730                           
  8731                           	psect	intentry
  8732  0004                     __pintentry:	
  8733 ;; *************** function _myIsr *****************
  8734 ;; Defined at:
  8735 ;;		line 135 in file "newmain.c"
  8736 ;; Parameters:    Size  Location     Type
  8737 ;;		None
  8738 ;; Auto vars:     Size  Location     Type
  8739 ;;		None
  8740 ;; Return value:  Size  Location     Type
  8741 ;;                  1    wreg      void 
  8742 ;; Registers used:
  8743 ;;		wreg, status,0
  8744 ;; Tracked objects:
  8745 ;;		On entry : 0/0
  8746 ;;		On exit  : 0/0
  8747 ;;		Unchanged: 0/0
  8748 ;; Data sizes:     COMMON   BANK0   BANK1   BANK2   BANK3   BANK4   BANK5   BANK6   BANK7   BANK8   BANK9  BANK10  BANK1
      +1  BANK12  BANK13  BANK14  BANK15  BANK16  BANK17  BANK18  BANK19  BANK20  BANK21  BANK22  BANK23  BANK24  BANK25
  8749 ;;      Params:         0       0       0       0       0       0       0       0       0       0       0       0       
      +0       0       0       0       0       0       0       0       0       0       0       0       0       0       0
  8750 ;;      Locals:         0       0       0       0       0       0       0       0       0       0       0       0       
      +0       0       0       0       0       0       0       0       0       0       0       0       0       0       0
  8751 ;;      Temps:          1       0       0       0       0       0       0       0       0       0       0       0       
      +0       0       0       0       0       0       0       0       0       0       0       0       0       0       0
  8752 ;;      Totals:         1       0       0       0       0       0       0       0       0       0       0       0       
      +0       0       0       0       0       0       0       0       0       0       0       0       0       0       0
  8753 ;;Total ram usage:        1 bytes
  8754 ;; Hardware stack levels used: 1
  8755 ;; This function calls:
  8756 ;;		Nothing
  8757 ;; This function is called by:
  8758 ;;		Interrupt level 1
  8759 ;; This function uses a non-reentrant model
  8760 ;;
  8761                           
  8762  0004                     _myIsr:
  8763                           
  8764                           ;incstack = 0
  8765  0004  147E               	bsf	int$flags,0	;set compiler interrupt flag (level 1)
  8766                           
  8767                           ; Regs used in _myIsr: [wreg+status,0]
  8768  0005  3180               	pagesel	$
  8769  0006                     i1l2892:
  8770                           
  8771                           ;newmain.c: 136:     if (PIR8bits.SMT1PRAIF) {
  8772  0006  014E               	movlb	14	; select bank14
  8773  0007  1C94               	btfss	20,1	;volatile
  8774  0008  280A               	goto	u422_21
  8775  0009  280B               	goto	u422_20
  8776  000A                     u422_21:
  8777  000A  281E               	goto	i1l90
  8778  000B                     u422_20:
  8779  000B                     i1l2894:
  8780                           
  8781                           ;newmain.c: 137:         dataAvailable = 1;
  8782  000B  3001               	movlw	1
  8783  000C  00F0               	movwf	??_myIsr
  8784  000D  0870               	movf	??_myIsr,w
  8785  000E  0141               	movlb	1	; select bank1
  8786  000F  00AE               	movwf	_dataAvailable^(0+128)	;volatile
  8787  0010                     i1l2896:
  8788                           
  8789                           ;newmain.c: 138:         LATCbits.LATC4 = ~LATCbits.LATC4;
  8790  0010  1003               	clrc
  8791  0011  0140               	movlb	0	; select bank0
  8792  0012  1E1A               	btfss	26,4	;volatile
  8793  0013  1403               	setc
  8794  0014  1803               	btfsc	3,0
  8795  0015  2817               	goto	u423_21
  8796  0016  281A               	goto	u423_20
  8797  0017                     u423_21:
  8798  0017  0140               	movlb	0	; select bank0
  8799  0018  161A               	bsf	26,4	;volatile
  8800  0019  281C               	goto	u424_24
  8801  001A                     u423_20:
  8802  001A  0140               	movlb	0	; select bank0
  8803  001B  121A               	bcf	26,4	;volatile
  8804  001C                     u424_24:
  8805  001C                     i1l2898:
  8806                           
  8807                           ;newmain.c: 139:         PIR8bits.SMT1PRAIF = 0;
  8808  001C  014E               	movlb	14	; select bank14
  8809  001D  1094               	bcf	20,1	;volatile
  8810  001E                     i1l90:
  8811  001E  107E               	bcf	int$flags,0	;clear compiler interrupt flag (level 1)
  8812  001F  0009               	retfie
  8813  0020                     __end_of_myIsr:
  8814  007E                     btemp	set	126	;btemp
  8815  007E                     int$flags	set	126
  8816  007E                     wtemp0	set	126
  8817                           
  8818                           	psect	idloc
  8819                           
  8820                           ;Config register IDLOC0 @ 0x8000
  8821                           ;	unspecified, using default values
  8822  8000                     	org	32768
  8823  8000  3FFF               	dw	16383
  8824                           
  8825                           ;Config register IDLOC1 @ 0x8001
  8826                           ;	unspecified, using default values
  8827  8001                     	org	32769
  8828  8001  3FFF               	dw	16383
  8829                           
  8830                           ;Config register IDLOC2 @ 0x8002
  8831                           ;	unspecified, using default values
  8832  8002                     	org	32770
  8833  8002  3FFF               	dw	16383
  8834                           
  8835                           ;Config register IDLOC3 @ 0x8003
  8836                           ;	unspecified, using default values
  8837  8003                     	org	32771
  8838  8003  3FFF               	dw	16383
  8839                           
  8840                           	psect	config
  8841                           
  8842                           ;Config register CONFIG1 @ 0x8007
  8843                           ;	External Oscillator mode selection bits
  8844                           ;	FEXTOSC = HS, HS (crystal oscillator) above 4MHz; PFM set to high power
  8845                           ;	Power-up default value for COSC bits
  8846                           ;	RSTOSC = EXT1X, EXTOSC operating per FEXTOSC bits
  8847                           ;	Clock Out Enable bit
  8848                           ;	CLKOUTEN = OFF, CLKOUT function is disabled; i/o or oscillator function on OSC2
  8849                           ;	Clock Switch Enable bit
  8850                           ;	CSWEN = ON, Writing to NOSC and NDIV is allowed
  8851                           ;	Fail-Safe Clock Monitor Enable bit
  8852                           ;	FCMEN = ON, FSCM timer enabled
  8853  8007                     	org	32775
  8854  8007  3FFA               	dw	16378
  8855                           
  8856                           ;Config register CONFIG2 @ 0x8008
  8857                           ;	Master Clear Enable bit
  8858                           ;	MCLRE = ON, MCLR pin is Master Clear function
  8859                           ;	Power-up Timer Enable bit
  8860                           ;	PWRTS = OFF, PWRT disabled
  8861                           ;	Low-Power BOR enable bit
  8862                           ;	LPBOREN = OFF, ULPBOR disabled
  8863                           ;	Brown-out reset enable bits
  8864                           ;	BOREN = ON, Brown-out Reset Enabled, SBOREN bit is ignored
  8865                           ;	Brown-out Reset Voltage Selection
  8866                           ;	BORV = LO, Brown-out Reset Voltage (VBOR) set to 2.45V
  8867                           ;	Zero-cross detect disable
  8868                           ;	ZCD = OFF, Zero-cross detect circuit is disabled at POR.
  8869                           ;	Peripheral Pin Select one-way control
  8870                           ;	PPS1WAY = OFF, The PPSLOCK bit can be set and cleared repeatedly by software
  8871                           ;	Stack Overflow/Underflow Reset Enable bit
  8872                           ;	STVREN = ON, Stack Overflow or Underflow will cause a reset
  8873  8008                     	org	32776
  8874  8008  37FF               	dw	14335
  8875                           
  8876                           ;Config register CONFIG3 @ 0x8009
  8877                           ;	WDT Period Select bits
  8878                           ;	WDTCPS = WDTCPS_31, Divider ratio 1:65536; software control of WDTPS
  8879                           ;	WDT operating mode
  8880                           ;	WDTE = OFF, WDT Disabled, SWDTEN is ignored
  8881                           ;	WDT Window Select bits
  8882                           ;	WDTCWS = WDTCWS_7, window always open (100%); software control; keyed access not requi
      +                          red
  8883                           ;	WDT input clock selector
  8884                           ;	WDTCCS = SC, Software Control
  8885  8009                     	org	32777
  8886  8009  3F9F               	dw	16287
  8887                           
  8888                           ;Config register CONFIG4 @ 0x800A
  8889                           ;	Boot Block Size Selection bits
  8890                           ;	BBSIZE = BB512, 512 words boot block size
  8891                           ;	Boot Block Enable bit
  8892                           ;	BBEN = OFF, Boot Block disabled
  8893                           ;	SAF Enable bit
  8894                           ;	SAFEN = OFF, SAF disabled
  8895                           ;	Application Block Write Protection bit
  8896                           ;	WRTAPP = OFF, Application Block not write protected
  8897                           ;	Boot Block Write Protection bit
  8898                           ;	WRTB = OFF, Boot Block not write protected
  8899                           ;	Configuration Register Write Protection bit
  8900                           ;	WRTC = OFF, Configuration Register not write protected
  8901                           ;	Data EEPROM write protection bit
  8902                           ;	WRTD = OFF, Data EEPROM NOT write protected
  8903                           ;	Storage Area Flash Write Protection bit
  8904                           ;	WRTSAF = OFF, SAF not write protected
  8905                           ;	Low Voltage Programming Enable bit
  8906                           ;	LVP = ON, Low Voltage programming enabled. MCLR/Vpp pin function is MCLR.
  8907  800A                     	org	32778
  8908  800A  3FFF               	dw	16383
  8909                           
  8910                           ;Config register CONFIG5 @ 0x800B
  8911                           ;	UserNVM Program memory code protection bit
  8912                           ;	CP = OFF, UserNVM code protection disabled
  8913  800B                     	org	32779
  8914  800B  3FFF               	dw	16383

Data Sizes:
    Strings     11
    Constant    4
    Data        0
    BSS         49
    Persistent  32
    Stack       0

Auto Spaces:
    Space          Size  Autos    Used
    COMMON           14     13      13
    BANK0            80     77      79
    BANK1            80      8      55
    BANK2            80      0       0
    BANK3            80      0       0
    BANK4            80      0       0
    BANK5            80      0       0
    BANK6            80      0       0
    BANK7            80      0       0
    BANK8            80      0       0
    BANK9            80      0       0
    BANK10           80      0       0
    BANK11           80      0       0
    BANK12           80      0       0
    BANK13           80      0       0
    BANK14           80      0       0
    BANK15           80      0       0
    BANK16           80      0       0
    BANK17           80      0       0
    BANK18           80      0       0
    BANK19           80      0       0
    BANK20           80      0       0
    BANK21           80      0       0
    BANK22           80      0       0
    BANK23           80      0       0
    BANK24           80      0       0
    BANK25           32      0       0

Pointer List with Targets:

    strncmp@_r	PTR const unsigned char  size(2) Largest target is 3
		 -> STR_8(CODE[3]), STR_4(CODE[3]), 

    strncmp@r	PTR const unsigned char  size(2) Largest target is 3
		 -> STR_8(CODE[3]), STR_4(CODE[3]), 

    strncmp@_l	PTR const unsigned char  size(2) Largest target is 5
		 -> STR_1(CODE[5]), 

    strncmp@l	PTR const unsigned char  size(2) Largest target is 5
		 -> STR_1(CODE[5]), 

    strlen@s	PTR const unsigned char  size(1) Largest target is 32
		 -> dbuf(BANK1[32]), 

    strlen@a	PTR const unsigned char  size(1) Largest target is 32
		 -> dbuf(BANK1[32]), 

    fputs@s	PTR const unsigned char  size(1) Largest target is 32
		 -> dbuf(BANK1[32]), 

    fputs@fp	PTR struct _IO_FILE size(1) Largest target is 0
		 -> NULL(NULL[0]), 

    S1068_IO_FILE$buffer	PTR unsigned char  size(1) Largest target is 0

    fputc@fp.buffer	PTR unsigned char  size(1) Largest target is 0

    fputc@fp	PTR struct _IO_FILE size(1) Largest target is 0
		 -> NULL(NULL[0]), 

    vfprintf@ap	PTR PTR void  size(1) Largest target is 1
		 -> printf@ap(BANK0[1]), 

    vfprintf@fp	PTR struct _IO_FILE size(1) Largest target is 0
		 -> NULL(NULL[0]), 

    vfprintf@fmt	PTR const unsigned char  size(2) Largest target is 5
		 -> STR_1(CODE[5]), 

    vfprintf@cfmt	PTR unsigned char  size(2) Largest target is 5
		 -> STR_1(CODE[5]), 

    vfpfcnvrt@fp	PTR struct _IO_FILE size(1) Largest target is 0
		 -> NULL(NULL[0]), 

    vfpfcnvrt@ap	PTR PTR void  size(1) Largest target is 1
		 -> printf@ap(BANK0[1]), 

    vfpfcnvrt@fmt	PTR PTR unsigned char  size(1) Largest target is 2
		 -> vfprintf@cfmt(BANK0[2]), 

    dtoa@fp	PTR struct _IO_FILE size(1) Largest target is 0
		 -> NULL(NULL[0]), 

    pad@fp	PTR struct _IO_FILE size(1) Largest target is 0
		 -> NULL(NULL[0]), 

    pad@buf	PTR unsigned char  size(1) Largest target is 32
		 -> dbuf(BANK1[32]), 

    printf@fmt	PTR const unsigned char  size(2) Largest target is 5
		 -> STR_1(CODE[5]), 

    printf@ap	PTR void [1] size(1) Largest target is 2
		 -> ?_printf(BANK0[2]), 


Critical Paths under _main in COMMON

    _main->___lmul
    _main->_printf
    _setNcoFreq->___lmul
    _vfpfcnvrt->_strncmp
    _dtoa->___aodiv
    _dtoa->_pad
    _pad->_fputs
    _fputs->_fputc
    _fputc->_putch
    _abs->___aomod
    _roundf->___fladd
    _roundf->___flge
    ___flsub->___fladd
    ___flmul->__Umul8_16

Critical Paths under _myIsr in COMMON

    None.

Critical Paths under _main in BANK0

    _main->_printf
    _setNcoFreq->___aodiv
    _printf->_vfprintf
    _vfprintf->_vfpfcnvrt
    _vfpfcnvrt->_dtoa
    _dtoa->___aodiv
    _dtoa->___aomod
    _pad->_fputs
    _abs->___aomod
    _lroundf->___fltol
    _roundf->___flmul
    ___flsub->___fladd
    ___flmul->___xxtofl
    ___fltol->_roundf
    ___fldiv->___flmul

Critical Paths under _myIsr in BANK0

    None.

Critical Paths under _main in BANK1

    None.

Critical Paths under _myIsr in BANK1

    None.

Critical Paths under _main in BANK2

    None.

Critical Paths under _myIsr in BANK2

    None.

Critical Paths under _main in BANK3

    None.

Critical Paths under _myIsr in BANK3

    None.

Critical Paths under _main in BANK4

    None.

Critical Paths under _myIsr in BANK4

    None.

Critical Paths under _main in BANK5

    None.

Critical Paths under _myIsr in BANK5

    None.

Critical Paths under _main in BANK6

    None.

Critical Paths under _myIsr in BANK6

    None.

Critical Paths under _main in BANK7

    None.

Critical Paths under _myIsr in BANK7

    None.

Critical Paths under _main in BANK8

    None.

Critical Paths under _myIsr in BANK8

    None.

Critical Paths under _main in BANK9

    None.

Critical Paths under _myIsr in BANK9

    None.

Critical Paths under _main in BANK10

    None.

Critical Paths under _myIsr in BANK10

    None.

Critical Paths under _main in BANK11

    None.

Critical Paths under _myIsr in BANK11

    None.

Critical Paths under _main in BANK12

    None.

Critical Paths under _myIsr in BANK12

    None.

Critical Paths under _main in BANK13

    None.

Critical Paths under _myIsr in BANK13

    None.

Critical Paths under _main in BANK14

    None.

Critical Paths under _myIsr in BANK14

    None.

Critical Paths under _main in BANK15

    None.

Critical Paths under _myIsr in BANK15

    None.

Critical Paths under _main in BANK16

    None.

Critical Paths under _myIsr in BANK16

    None.

Critical Paths under _main in BANK17

    None.

Critical Paths under _myIsr in BANK17

    None.

Critical Paths under _main in BANK18

    None.

Critical Paths under _myIsr in BANK18

    None.

Critical Paths under _main in BANK19

    None.

Critical Paths under _myIsr in BANK19

    None.

Critical Paths under _main in BANK20

    None.

Critical Paths under _myIsr in BANK20

    None.

Critical Paths under _main in BANK21

    None.

Critical Paths under _myIsr in BANK21

    None.

Critical Paths under _main in BANK22

    None.

Critical Paths under _myIsr in BANK22

    None.

Critical Paths under _main in BANK23

    None.

Critical Paths under _myIsr in BANK23

    None.

Critical Paths under _main in BANK24

    None.

Critical Paths under _myIsr in BANK24

    None.

Critical Paths under _main in BANK25

    None.

Critical Paths under _myIsr in BANK25

    None.

Call Graph Tables:

 ---------------------------------------------------------------------------------
 (Depth) Function   	        Calls       Base Space   Used Autos Params    Refs
 ---------------------------------------------------------------------------------
 (0) _main                                                 8     8      0   23328
                                              0 BANK1      8     8      0
                            ___fldiv
                            ___flmul
                             ___lmul
                           ___xxtofl
                            _lroundf
                             _printf
                         _setNcoFreq
                           _smt_init
                          _uart_init
 ---------------------------------------------------------------------------------
 (1) _uart_init                                            0     0      0       0
 ---------------------------------------------------------------------------------
 (1) _smt_init                                             0     0      0       0
 ---------------------------------------------------------------------------------
 (1) _setNcoFreq                                          28    24      4     917
                                             16 BANK0     28    24      4
                            ___aodiv
                             ___lmul (ARG)
 ---------------------------------------------------------------------------------
 (1) _printf                                              10     4      6    6968
                                             12 COMMON     1     1      0
                                             70 BANK0      7     1      6
                           _vfprintf
 ---------------------------------------------------------------------------------
 (2) _vfprintf                                             8     5      3    6836
                                             62 BANK0      8     5      3
                          _vfpfcnvrt
 ---------------------------------------------------------------------------------
 (3) _vfpfcnvrt                                           40    38      2    6504
                                             46 BANK0     16    14      2
                               _dtoa
                              _fputc
                            _strncmp
 ---------------------------------------------------------------------------------
 (4) _strncmp                                             11     5      6     681
                                              1 COMMON    11     5      6
 ---------------------------------------------------------------------------------
 (4) _dtoa                                                30    22      8    4367
                                             16 BANK0     30    22      8
                            ___aodiv
                            ___aomod
                                _abs
                                _pad
 ---------------------------------------------------------------------------------
 (5) _pad                                                  9     6      3    2466
                                             11 COMMON     1     1      0
                                              7 BANK0      8     5      3
                              _fputc
                              _fputs
                             _strlen
 ---------------------------------------------------------------------------------
 (6) _strlen                                               5     3      2     123
                                              1 COMMON     5     3      2
 ---------------------------------------------------------------------------------
 (6) _fputs                                                8     7      1    1105
                                             10 COMMON     1     0      1
                                              0 BANK0      7     7      0
                              _fputc
 ---------------------------------------------------------------------------------
 (4) _fputc                                                8     5      3     790
                                              2 COMMON     8     5      3
                              _putch
 ---------------------------------------------------------------------------------
 (5) _putch                                                1     1      0      22
                                              1 COMMON     1     1      0
 ---------------------------------------------------------------------------------
 (5) _abs                                                  4     2      2     142
                                              4 COMMON     4     2      2
                            ___aomod (ARG)
 ---------------------------------------------------------------------------------
 (5) ___aomod                                             19     3     16     448
                                              1 COMMON     3     3      0
                                              0 BANK0     16     0     16
 ---------------------------------------------------------------------------------
 (2) ___aodiv                                             27    11     16     604
                                              1 COMMON    11    11      0
                                              0 BANK0     16     0     16
 ---------------------------------------------------------------------------------
 (1) _lroundf                                              4     0      4   10891
                                             69 BANK0      4     0      4
                            ___fldiv (ARG)
                            ___fltol
                           ___xxtofl (ARG)
                             _roundf
 ---------------------------------------------------------------------------------
 (2) _roundf                                              26    22      4   10488
                                             32 BANK0     26    22      4
                            ___fladd
                             ___flge
                            ___flmul
                            ___flneg
                            ___flsub
 ---------------------------------------------------------------------------------
 (3) ___flsub                                              8     0      8    3397
                                              8 BANK0      8     0      8
                            ___fladd
 ---------------------------------------------------------------------------------
 (4) ___fladd                                             20    12      8    3200
                                              1 COMMON    12     4      8
                                              0 BANK0      8     8      0
 ---------------------------------------------------------------------------------
 (3) ___flneg                                              4     0      4     197
                                              1 COMMON     4     0      4
 ---------------------------------------------------------------------------------
 (3) ___flmul                                             26    18      8    2569
                                              6 BANK0     26    18      8
                          __Umul8_16
                           ___xxtofl (ARG)
 ---------------------------------------------------------------------------------
 (4) __Umul8_16                                            9     7      2     799
                                              1 COMMON     9     7      2
 ---------------------------------------------------------------------------------
 (3) ___flge                                              12     4      8     486
                                              1 COMMON    12     4      8
 ---------------------------------------------------------------------------------
 (2) ___fltol                                             11     7      4     305
                                             58 BANK0     11     7      4
                             _roundf (ARG)
 ---------------------------------------------------------------------------------
 (1) ___xxtofl                                            14    10      4     398
                                              1 COMMON     8     4      4
                                              0 BANK0      6     6      0
 ---------------------------------------------------------------------------------
 (1) ___lmul                                              12     4      8     244
                                              1 COMMON    12     4      8
 ---------------------------------------------------------------------------------
 (1) ___fldiv                                             26    18      8    1273
                                             32 BANK0     26    18      8
                            ___flmul (ARG)
                           ___xxtofl (ARG)
 ---------------------------------------------------------------------------------
 Estimated maximum stack depth 6
 ---------------------------------------------------------------------------------
 (Depth) Function   	        Calls       Base Space   Used Autos Params    Refs
 ---------------------------------------------------------------------------------
 (9) _myIsr                                                1     1      0       0
                                              0 COMMON     1     1      0
 ---------------------------------------------------------------------------------
 Estimated maximum stack depth 9
 ---------------------------------------------------------------------------------

 Call Graph Graphs:

 _main (ROOT)
   ___fldiv
     ___flmul (ARG)
       __Umul8_16
       ___xxtofl (ARG)
     ___xxtofl (ARG)
   ___flmul
   ___lmul
   ___xxtofl
   _lroundf
     ___fldiv (ARG)
     ___fltol (ARG)
       _roundf (ARG)
         ___fladd
         ___flge
         ___flmul
         ___flneg
         ___flsub
           ___fladd
     ___xxtofl (ARG)
     _roundf (ARG)
   _printf
     _vfprintf
       _vfpfcnvrt
         _dtoa
           ___aodiv
           ___aomod
           _abs
             ___aomod (ARG)
           _pad
             _fputc
               _putch
             _fputs
               _fputc
             _strlen
         _fputc
         _strncmp
   _setNcoFreq
     ___aodiv
     ___lmul (ARG)
   _smt_init
   _uart_init

 _myIsr (ROOT)

 Address spaces:
Name               Size   Autos  Total    Cost      Usage
BIGRAM             7F0      0       0       0        0.0%
EEDATA             100      0       0       0        0.0%
NULL                 0      0       0       0        0.0%
CODE                 0      0       0       0        0.0%
BITCOMMON            E      0       0       1        0.0%
BITSFR0              0      0       0       1        0.0%
SFR0                 0      0       0       1        0.0%
COMMON               E      D       D       2       92.9%
BITSFR1              0      0       0       2        0.0%
SFR1                 0      0       0       2        0.0%
BITSFR2              0      0       0       3        0.0%
SFR2                 0      0       0       3        0.0%
STACK                0      0       0       3        0.0%
BITBANK0            50      0       0       4        0.0%
BITSFR3              0      0       0       4        0.0%
SFR3                 0      0       0       4        0.0%
BANK0               50     4D      4F       5       98.8%
BITSFR4              0      0       0       5        0.0%
SFR4                 0      0       0       5        0.0%
BITSFR5              0      0       0       6        0.0%
SFR5                 0      0       0       6        0.0%
ABS                  0      0      93       6        0.0%
BITBANK1            50      0       0       7        0.0%
BITSFR6              0      0       0       7        0.0%
SFR6                 0      0       0       7        0.0%
BANK1               50      8      37       8       68.8%
BITSFR7              0      0       0       8        0.0%
SFR7                 0      0       0       8        0.0%
BITBANK2            50      0       0       9        0.0%
BITSFR8              0      0       0       9        0.0%
SFR8                 0      0       0       9        0.0%
BANK2               50      0       0      10        0.0%
BITSFR9              0      0       0      10        0.0%
SFR9                 0      0       0      10        0.0%
BITBANK3            50      0       0      11        0.0%
BITSFR10             0      0       0      11        0.0%
SFR10                0      0       0      11        0.0%
BANK3               50      0       0      12        0.0%
BITSFR11             0      0       0      12        0.0%
SFR11                0      0       0      12        0.0%
BITBANK4            50      0       0      13        0.0%
BITSFR12             0      0       0      13        0.0%
SFR12                0      0       0      13        0.0%
BANK4               50      0       0      14        0.0%
BITSFR13             0      0       0      14        0.0%
SFR13                0      0       0      14        0.0%
BITBANK5            50      0       0      15        0.0%
BITSFR14             0      0       0      15        0.0%
SFR14                0      0       0      15        0.0%
BANK5               50      0       0      16        0.0%
BITSFR15             0      0       0      16        0.0%
SFR15                0      0       0      16        0.0%
BITBANK6            50      0       0      17        0.0%
BITSFR16             0      0       0      17        0.0%
SFR16                0      0       0      17        0.0%
BANK6               50      0       0      18        0.0%
BITSFR17             0      0       0      18        0.0%
SFR17                0      0       0      18        0.0%
BITBANK7            50      0       0      19        0.0%
BITSFR18             0      0       0      19        0.0%
SFR18                0      0       0      19        0.0%
BANK7               50      0       0      20        0.0%
BITSFR19             0      0       0      20        0.0%
SFR19                0      0       0      20        0.0%
BITBANK8            50      0       0      21        0.0%
BITSFR20             0      0       0      21        0.0%
SFR20                0      0       0      21        0.0%
BANK8               50      0       0      22        0.0%
BITSFR21             0      0       0      22        0.0%
SFR21                0      0       0      22        0.0%
BITBANK9            50      0       0      23        0.0%
BITSFR22             0      0       0      23        0.0%
SFR22                0      0       0      23        0.0%
BANK9               50      0       0      24        0.0%
BITSFR23             0      0       0      24        0.0%
SFR23                0      0       0      24        0.0%
BITBANK10           50      0       0      25        0.0%
BITSFR24             0      0       0      25        0.0%
SFR24                0      0       0      25        0.0%
BANK10              50      0       0      26        0.0%
BITSFR25             0      0       0      26        0.0%
SFR25                0      0       0      26        0.0%
BITBANK11           50      0       0      27        0.0%
BITSFR26             0      0       0      27        0.0%
SFR26                0      0       0      27        0.0%
BANK11              50      0       0      28        0.0%
BITSFR27             0      0       0      28        0.0%
SFR27                0      0       0      28        0.0%
BITBANK12           50      0       0      29        0.0%
BITSFR28             0      0       0      29        0.0%
SFR28                0      0       0      29        0.0%
BANK12              50      0       0      30        0.0%
BITSFR29             0      0       0      30        0.0%
SFR29                0      0       0      30        0.0%
BITBANK13           50      0       0      31        0.0%
BITSFR30             0      0       0      31        0.0%
SFR30                0      0       0      31        0.0%
BANK13              50      0       0      32        0.0%
BITSFR31             0      0       0      32        0.0%
SFR31                0      0       0      32        0.0%
BITBANK14           50      0       0      33        0.0%
BITSFR32             0      0       0      33        0.0%
SFR32                0      0       0      33        0.0%
BANK14              50      0       0      34        0.0%
BITSFR33             0      0       0      34        0.0%
SFR33                0      0       0      34        0.0%
BITBANK15           50      0       0      35        0.0%
BITSFR34             0      0       0      35        0.0%
SFR34                0      0       0      35        0.0%
BANK15              50      0       0      36        0.0%
BITSFR35             0      0       0      36        0.0%
SFR35                0      0       0      36        0.0%
BITBANK16           50      0       0      37        0.0%
BITSFR36             0      0       0      37        0.0%
SFR36                0      0       0      37        0.0%
BANK16              50      0       0      38        0.0%
BITSFR37             0      0       0      38        0.0%
SFR37                0      0       0      38        0.0%
BITBANK17           50      0       0      39        0.0%
BITSFR38             0      0       0      39        0.0%
SFR38                0      0       0      39        0.0%
BANK17              50      0       0      40        0.0%
BITSFR39             0      0       0      40        0.0%
SFR39                0      0       0      40        0.0%
BITBANK18           50      0       0      41        0.0%
BITSFR40             0      0       0      41        0.0%
SFR40                0      0       0      41        0.0%
BANK18              50      0       0      42        0.0%
BITSFR41             0      0       0      42        0.0%
SFR41                0      0       0      42        0.0%
BITBANK19           50      0       0      43        0.0%
BITSFR42             0      0       0      43        0.0%
SFR42                0      0       0      43        0.0%
BANK19              50      0       0      44        0.0%
BITSFR43             0      0       0      44        0.0%
SFR43                0      0       0      44        0.0%
BITBANK20           50      0       0      45        0.0%
BITSFR44             0      0       0      45        0.0%
SFR44                0      0       0      45        0.0%
BANK20              50      0       0      46        0.0%
BITSFR45             0      0       0      46        0.0%
SFR45                0      0       0      46        0.0%
BITBANK21           50      0       0      47        0.0%
BITSFR46             0      0       0      47        0.0%
SFR46                0      0       0      47        0.0%
BANK21              50      0       0      48        0.0%
BITSFR47             0      0       0      48        0.0%
SFR47                0      0       0      48        0.0%
BITBANK22           50      0       0      49        0.0%
BITSFR48             0      0       0      49        0.0%
SFR48                0      0       0      49        0.0%
BANK22              50      0       0      50        0.0%
BITSFR49             0      0       0      50        0.0%
SFR49                0      0       0      50        0.0%
BITBANK23           50      0       0      51        0.0%
BITSFR50             0      0       0      51        0.0%
SFR50                0      0       0      51        0.0%
BANK23              50      0       0      52        0.0%
BITSFR51             0      0       0      52        0.0%
SFR51                0      0       0      52        0.0%
BITBANK24           50      0       0      53        0.0%
BITSFR52             0      0       0      53        0.0%
SFR52                0      0       0      53        0.0%
BANK24              50      0       0      54        0.0%
BITSFR53             0      0       0      54        0.0%
SFR53                0      0       0      54        0.0%
BITBANK25           20      0       0      55        0.0%
BITSFR54             0      0       0      55        0.0%
SFR54                0      0       0      55        0.0%
BANK25              20      0       0      56        0.0%
BITSFR55             0      0       0      56        0.0%
SFR55                0      0       0      56        0.0%
BITSFR56             0      0       0      57        0.0%
SFR56                0      0       0      57        0.0%
DATA                 0      0      93      57        0.0%
BITSFR57             0      0       0      58        0.0%
SFR57                0      0       0      58        0.0%
BITSFR58             0      0       0      59        0.0%
SFR58                0      0       0      59        0.0%
BITSFR59             0      0       0      60        0.0%
SFR59                0      0       0      60        0.0%
BITSFR60             0      0       0      61        0.0%
SFR60                0      0       0      61        0.0%
BITSFR61             0      0       0      62        0.0%
SFR61                0      0       0      62        0.0%
BITSFR62             0      0       0      63        0.0%
SFR62                0      0       0      63        0.0%
BITSFR63             0      0       0      64        0.0%
SFR63                0      0       0      64        0.0%


Microchip Technology PIC Macro Assembler V2.32 build 20210201212658 
Symbol Table                                                                                   Sun Apr 23 22:27:45 2023

           ___fldiv@aexp 0059             ___fldiv@bexp 0058             ___fldiv@sign 0051  
                     l71 07FE                       l65 0A1F                       l68 15A6  
                     l93 156D                       l96 1571      __Umul8_16@word_mpld 0077  
                    l262 1699                      l361 0BCF                      l442 17FF  
                    l434 08BA                      l426 084D                      l362 0BE0  
                    l452 17FF                      l348 0CD0                      l621 0F81  
                    l605 0EA3                      l429 08A1                      l349 0CE1  
                    l702 0933                      l438 157C                      l607 0FFF  
                    l703 093F                      l800 15D9                      l449 17EA  
                    l553 0388                      l626 0FCD                      l570 041D  
                    l562 04C6                      l627 0FE7                      l651 0203  
                    l555 0363                      l580 0461                      l812 16D8  
                    l820 1666                      l716 158E                      l629 0FF6  
                    l645 0287                      l549 02E6                      l709 161B  
                    l574 043F                      l750 172E                      l591 04BC  
                    l583 0499                      l664 162E                      l592 04C6  
                    l657 027B                      l841 15BF                      l745 16F3  
                    l753 0D2B                      l666 163E                      l762 0DD8  
                    l754 0D35                      l691 0967                      l595 15F9  
                    l828 06A1                      l748 1715                      l749 1722  
                    l845 178A                      l758 0D53                      l695 0919  
                    l759 0D69                      l783 07F2                      l776 0E4B  
                    l689 08DE                      l793 0830                      l797 15D9  
                    _abs 15C0                      _pad 16D9                      wreg 0009  
           ___flmul@aexp 0038             ___flmul@bexp 0039             ___flmul@sign 0033  
           ___flmul@temp 003E             ___flmul@prod 003A             _BAUD1CONbits 011F  
           ___fltol@exp1 0064                     l2000 15CD                     l2010 0297  
                   l2002 0288                     ?_abs 0074                     l2100 038C  
                   l2012 029C                     l2020 02AC                     l2004 028E  
                   l2110 03A6                     l2102 0391                     l2030 02C4  
                   l2022 02B4                     l2014 02A1                     l2006 0292  
                   l2200 1626                     l2120 03B8                     l2112 03AA  
                   l2040 02DB                     l2032 02C8                     l2024 02B9  
                   l2016 02A9                     l2008 0296                     l2202 162A  
                   l2130 0407                     l2122 03C1                     l2114 03B1  
                   l2106 039A                     l2050 02F4                     l2042 02DC  
                   l2034 02C9                     l2026 02BF                     l2018 02AA  
                   l2210 0CE4                     l2300 0885                     l2204 1635  
                   l2132 040C                     l2116 03B3                     l2108 03A2  
                   l2124 03C6                     l2060 0308                     l2052 02F8  
                   l2036 02CE                     l2044 02DE                     l2028 02C0  
                   l2220 0D45                     l2212 0CF4                     l2302 0889  
                   l2206 163A                     l2310 1572                     l2150 0446  
                   l2142 0433                     l2126 03DD                     l2134 0415  
                   l2118 03B7                     l2070 031C                     l2062 030C  
                   l2054 02FC                     l2046 02EC                     l2038 02D3  
                   l2230 0D6D                     l2222 0D4B                     l2214 0D07  
                   l2304 08B7                     l2400 0179                     l2312 157A  
                   l2160 0454                     l2152 0448                     l2144 043A  
                   l2136 0425                     l2128 0401                     l2072 0320  
                   l2064 0310                     l2056 0300                     l2048 02F0  
                   l2080 0330                     l2320 15DD                     l2240 0DAB  
                   l2232 0D70                     l2224 0D5B                     l2216 0D0D  
                   l2306 08B9                     l2410 01CC                     l2402 018D  
                   l2330 003F                     l2314 157C                     l2170 046B  
                   l2162 0458                     l2154 044D                     l2146 043E  
                   l2138 042A                     l2090 0370                     l2082 0331  
                   l2074 0324                     l2066 0314                     l2058 0304  
                   l2242 0DE6                     l2250 0E13                     l2234 0D75  
                   l2226 0D61                     l2218 0D30                     l2412 01D3  
                   l2420 01E3                     l2404 01A2                     l2340 0054  
                   l2332 0040                     l2324 0031                     l2180 04A3  
                   l2172 0473                     l2164 045E                     l2148 0443  
                   l2156 044F                     l2092 0374                     l2084 0348  
                   l2076 0328                     l2068 0318                     l2260 0E2D  
                   l2252 0E1A                     l2244 0DF3                     l2236 0DA3  
                   l2228 0D65                     l2500 07B3                     l2422 01E7  
                   l2414 01D7                     l2406 01B9                     l2350 006A  
                   l2342 005C                     l2334 0045                     l2326 0037  
                   l2190 04B7                     l2182 04AB                     l2174 0477  
                   l2158 0453                     l2094 0375                     l2086 0367  
                   l2078 032C                     l2318 15DA                     l2262 0E31  
                   l2254 0E1E                     l2246 0E00                     l2238 0DA7  
                   l2270 1737                     l2502 07BE                     l2520 178B  
                   l2440 0231                     l2432 0208                     l2424 01E8  
                   l2416 01D8                     l2408 01C0                     l2360 0086  
                   l2352 006F                     l2344 0061                     l2336 004A  
                   l2328 003B                     l2192 04C1                     l2184 04B0  
                   l2176 0495                     l2168 0466                     l2096 037E  
                   l2088 036E                     l2256 0E22                     l2264 0E39  
                   l2248 0E0E                     l2280 175B                     l2272 1743  
                   l2512 07CF                     l2600 0828                     l2530 17B4  
                   l2522 1797                     l2290 0831                     l2450 0263  
                   l2434 020D                     l2442 0235                     l2426 01EC  
                   l2418 01DF                     l2370 00A6                     l2362 008B  
                   l2354 0074                     l2346 0065                     l2338 0052  
                   l2194 04C5                     l2186 04B1                     l2178 049E  
                   l2098 0382                     l2258 0E28                     l2282 1764  
                   l2514 07E8                     l2506 07C4                     l2610 09DE  
                   l2700 0E99                     l2532 17BC                     l2292 0845  
                   l2196 161D                     l2460 027F                     l2452 0265  
                   l2444 0242                     l2436 0215                     l2428 0200  
                   l2380 0101                     l2372 00B3                     l2364 0090  
                   l2356 007C                     l2348 0069                     l2188 04B5  
                   l1900 15A8                     l2284 176A                     l2276 1746  
                   l2268 172F                     l2508 07CC                     l2612 09F9  
                   l2604 0968                     l2620 158F                     l2702 0E9B  
                   l2550 17E1                     l2542 17CA                     l2534 17BE  
                   l2526 17A0                     l2294 0861                     l2198 161F  
                   l2454 0272                     l2446 024C                     l2438 0219  
                   l2390 0136                     l2382 010E                     l2374 00CD  
                   l2358 007E                     l1910 0BE1                     l1902 15AD  
                   l2286 177A                     l2278 1752                     l2470 06C3  
                   l2614 0A14                     l2606 0979                     l2630 15A3  
                   l2622 1594                     l2720 0EE2                     l2704 0EAB  
                   l2712 0EC4                     l2552 17EF                     l2536 17C2  
                   l2544 17DA                     l2528 17B3                     l2296 0869  
                   l2456 0276                     l2448 025A                     l2392 013D  
                   l2384 0115                     l2376 00DA                     l2368 0099  
                   l2560 04F4                     l2640 15FA                     l1920 0C36  
                   l1912 0BE2                     l1904 15B1                     l2480 070C  
                   l2472 06C8                     l2464 06A4                     l2616 0A17  
                   l2608 09C6                     l2624 1599                     l2632 07F3  
                   l2730 0F01                     l2722 0EEA                     l2714 0EC9  
                   l2706 0EB7                     l2650 1667                     l2810 08D6  
                   l2554 17F4                     l2298 086D                     l2458 0277  
                   l2394 0151                     l2386 0122                     l2378 00F4  
                   l2570 053B                     l2562 0501                     l1930 0C5C  
                   l1922 0C3A                     l1914 0BEC                     l1906 15B9  
                   l2490 0760                     l2474 06DA                     l2466 06B5  
                   l2618 0A1B                     l2626 159C                     l2634 07F8  
                   l2740 0F2D                     l2732 0F0F                     l2724 0EF2  
                   l2708 0EBB                     l2660 1691                     l2652 166F  
                   l2820 08FF                     l2812 08E6                     l2804 08BD  
                   l2396 0158                     l2388 0129                     l2580 0617  
                   l2564 0502                     l2556 04C7                     l1940 0C9E  
                   l1932 0C60                     l1924 0C44                     l1916 0C0D  
                   l2492 077F                     l2484 0726                     l2476 06EB  
                   l2468 06BD                     l2644 157D                     l2628 15A2  
                   l2636 07F9                     l2750 0F48                     l2742 0F2E  
                   l2734 0F13                     l2726 0EFA                     l2718 0ED2  
                   l2670 0E5A                     l2654 1673                     l2830 0929  
                   l2822 0906                     l2806 08C2                     l2398 016C  
                   l2582 0651                     l2574 0559                     l2566 051A  
                   l2558 04DF                     l1942 0C9F                     l1934 0C64  
                   l1926 0C51                     l1918 0C17                     l1950 0AF8  
                   l2486 073E                     l2478 06F3                     l2646 1582  
                   l2638 07FB                     l2760 0F5D                     l2752 0F4A  
                   l2744 0F36                     l2736 0F14                     l2728 0EFC  
                   l2680 0E6E                     l2672 0E5B                     l2664 0E4C  
                   l2656 167B                     l2840 095A                     l2832 092D  
                   l2824 090A                     l2816 08EF                     l2808 08C6  
                   l2584 066E                     l2576 05C5                     l2568 052E  
                   l1936 0C6C                     l1928 0C54                     l1944 0CAD  
                   l1960 0B59                     l1952 0B02                     l1880 169F  
                   l2496 0799                     l2488 0757                     l2592 0802  
                   l2770 0F7E                     l2754 0F51                     l2762 0F61  
                   l2738 0F1B                     l2746 0F3A                     l2690 0E85  
                   l2674 0E60                     l2682 0E70                     l2666 0E52  
                   l2658 1682                     l2842 095E                     l2834 0937  
                   l2826 0912                     l2818 08F4                     l2586 0685  
                   l2578 05FF                     l1946 0CB2                     l1938 0C8E  
                   l1970 0B8E                     l1962 0B5C                     l1954 0B23  
                   l1882 16A4                     l2498 07AB                     l2594 0806  
                   l2850 0A23                     l2780 0F97                     l2764 0F65  
                   l2756 0F55                     l2748 0F40                     l2692 0E86  
                   l2684 0E78                     l2676 0E65                     l2668 0E56  
                   l2844 095F                     l2836 0941                     l2828 0920  
                   l2588 0699                     l1972 0B9E                     l1964 0B64  
                   l1956 0B2D                     l1948 0AF7                     l1876 156A  
                   l1884 16A9                     l1892 1641                     l1980 16DF  
                   l2596 080A                     l2860 0A2B                     l2852 0A25  
                   l2790 0FDE                     l2782 0FAF                     l2774 0F86  
                   l2766 0F66                     l2758 0F56                     l2694 0E8B  
                   l2686 0E7D                     l2678 0E6D                     l2838 0955  
                   l1966 0B68                     l1974 0BAC                     l1958 0B4C  
                   l1886 16B3                     l1878 169A                     l1894 1644  
                   l1990 1702                     l1982 16E7                     l2598 081E  
                   l2870 0A36                     l2862 0A2C                     l2854 0A26  
                   ?_pad 0027                     l2792 0FE6                     l2776 0F8B  
                   l2784 0FB3                     l2768 0F6A                     l2696 0E90  
                   l2688 0E81                     l1976 0BB1                     l1968 0B6C  
                   l1888 16D0                     l1896 1652                     l1992 1707  
                   l1984 16EC                     l2880 0A4A                     l2872 0A3A  
                   l2864 0A2E                     l2856 0A28                     l2848 0A20  
                   l2794 0FEC                     l2786 0FC0                     l2778 0F93  
                   l2698 0E98                     l1898 1657                     l1994 171A  
                   l1986 16F1                     l1978 16DB                     l2890 0ADC  
                   l2882 0A4D                     l2874 0A3B                     l2866 0A30  
                   l2858 0A2A                     l2796 0FF0                     l2788 0FDB  
                   l1988 16F6                     l2884 0A50                     l2876 0A3C  
                   l2868 0A34                     l2798 0FF2                     l1998 15C0  
                   l2886 0A56                     l2878 0A3E                     l2888 0ABD  
                   STR_1 1804                     STR_2 1809                     STR_4 1809  
                   STR_6 180C                     STR_8 180C                     u2200 0BEC  
                   u3000 0DE6                     u2201 0BEB                     u3001 0DE5  
                   u2130 1571                     u3010 0DF3                     u2131 1570  
                   u3011 0DF2                     u2220 0C17                     u2140 169F  
                   u3020 0E00                     u3100 1764                     u2221 0C16  
                   u2141 169E                     u3021 0DFF                     u3005 0DE2  
                   u3101 1763                     u2310 0B02                     u2150 16A4  
                   u3030 0E0E                     u3110 176A                     u2311 0B01  
                   u2151 16A3                     u3031 0E0D                     u3111 1769  
                   u4000 0F85                     u3200 0045                     u2240 0C41  
                   u2160 16B3                     u3040 0E13                     u3120 177A  
                   u4001 0F84                     u3201 0044                     u2161 16B2  
                   u3041 0E12                     u3025 0DFC                     u3121 1779  
                   u4010 0F8B                     u3130 0845                     u3210 004A  
                   u2250 0C51                     u2330 0B2D                     u2170 16D0  
                   u2410 16DF                     u3050 0E1A                     u4011 0F8A  
                   u3131 0844                     u3211 0049                     u2251 0C50  
                   u2331 0B2C                     u2171 16CF                     u2411 16DE  
                   u3051 0E19                     u3035 0E0A                     u4020 0F97  
                   u3140 0861                     u3300 01AF                     u3220 0069  
                   u2500 02C8                     u2260 0C64                     u2180 1666  
                   u2420 16EC                     u3060 0E1E                     u4021 0F96  
                   u3141 0860                     u3221 0068                     u2501 02C7  
                   u2261 0C63                     u2181 1665                     u2421 16EB  
                   u3061 0E1D                     u4030 0FA5                     u4110 0905  
                   u3150 086D                     u3230 006F                     u2510 02CE  
                   u2270 0C8E                     u2350 0B59                     u2190 15B9  
                   u2430 1715                     u3070 0E28                     u4111 0904  
                   u3151 086C                     u3231 006E                     u2511 02CD  
                   u2271 0C8D                     u2351 0B58                     u2175 16CC  
                   u2191 15B8                     u2431 1714                     u3071 0E27  
                   u4040 0FC0                     u4200 095E                     u3160 0889  
                   u3400 0219                     u3240 0074                     u2520 02D3  
                   u2280 0CAD                     u2360 0B6C                     u2440 171A  
                   u3080 1743                     u4041 0FBF                     u4201 095D  
                   u4105 08F9                     u3161 0888                     u3401 0218  
                   u3305 01AB                     u3241 0073                     u2521 02D2  
                   u2281 0CAC                     u2361 0B6B                     u2441 1719  
                   u3081 1742                     u4050 0FDB                     u4130 091F  
                   u3170 08B7                     u3410 0227                     u3330 01D7  
                   u3250 008B                     u2610 0388                     u2530 02EC  
                   u2290 0CB2                     u2370 0B8E                     u2450 15CD  
                   u3090 175B                     u4210 0A56                     u4051 0FDA  
                   u4035 0FA1                     u4131 091E                     u3171 08B6  
                   u3331 01D6                     u3315 01BA                     u3251 008A  
                   u2611 0387                     u2531 02EB                     u2291 0CB1  
                   u2275 0C8A                     u2371 0B8D                     u2451 15CC  
                   u2435 1711                     u3091 175A                     u4211 0A55  
                   u4060 0FF0                     u3420 0242                     u3260 0090  
                   u3180 157A                     u2700 0425                     u2620 038C  
                   u2540 02F0                     u2460 0296                     u2380 0BAC  
                   u3500 07AB                     u4061 0FEF                     u4045 0FBC  
                   u4125 0913                     u3421 0241                     u3325 01CD  
                   u3261 008F                     u3181 1579                     u2701 0424  
                   u2621 038B                     u2605 0378                     u2541 02EF  
                   u2461 0295                     u2381 0BAB                     u3501 07AA  
                   u4150 092D                     u4070 08C2                     u3510 1797  
                   u3430 025A                     u3350 01E7                     u3190 003F  
                   u2710 042A                     u2630 0391                     u2550 0348  
                   u2470 029C                     u2390 0BB1                     u4055 0FD7  
                   u4151 092C                     u4071 08C1                     u3511 1796  
                   u3175 08B3                     u3431 0259                     u3415 0223  
                   u3351 01E6                     u3191 003E                     u2711 0429  
                   u2631 0390                     u2551 0347                     u2471 029B  
                   u2391 0BB0                     u2375 0B8A                     u2455 15C9  
                   u4160 0933                     u4080 08C6                     u3600 17F4  
                   u3520 17AD                     u3440 0276                     u3360 01EC  
                   u2800 046B                     u2640 03A6                     u2560 0351  
                   u2480 02A1                     u4161 0932                     u4145 0923  
                   u4081 08C5                     u3601 17F3                     u3441 0275  
                   u3425 023E                     u3361 01EB                     u3345 01D9  
                   u2801 046A                     u2641 03A5                     u2561 034F  
                   u2481 02A0                     u4170 0937                     u4090 08E6  
                   u3530 17C2                     u3370 0200                     u3290 0198  
                   u2810 0477                     u2730 043E                     u2650 03AA  
                   u2570 0352                     u2490 02BF                     u3610 04EC  
                   u3450 06B5                     u4171 0936                     u4091 08E5  
                   u3531 17C1                     u3435 0256                     u3371 01FF  
                   u3275 010F                     u2811 0476                     u2731 043D  
                   u2651 03A9                     u2555 0344                     u2491 02BE  
                   u3451 06B4                     u4180 094B                     u3540 17C9  
                   u3380 0207                     u2820 0486                     u2740 0443  
                   u2660 03B7                     u2580 0367                     u3620 0501  
                   u3460 06DA                     u3700 0828                     u3541 17C8  
                   u3525 17A9                     u3381 0206                     u3285 013E  
                   u2741 0442                     u2725 0434                     u2661 03B6  
                   u2581 0366                     u3621 0500                     u3461 06D9  
                   u3701 0827                     u4190 095A                     u2910 163A  
                   u3390 020D                     u2830 0495                     u2750 044D  
                   u2590 0374                     u3630 0510                     u3470 06EB  
                   u3710 09A7                     u4191 0959                     u2911 1639  
                   u3391 020C                     u3295 0194                     u2831 0494  
                   u2751 044C                     u2591 0373                     u3615 04E8  
                   u3471 06EA                     u3800 0E65                     u3560 17D9  
                   u2840 049E                     u2760 0453                     u2680 03DD  
                   u3640 051A                     u2920 0CFF                     u3480 073E  
                   u3720 09EB                     u3801 0E64                     u4185 0947  
                   u3561 17D8                     u2905 162F                     u2841 049D  
                   u2825 0482                     u2761 0452                     u2681 03DC  
                   u3641 0519                     u3625 04FD                     u2921 0CFD  
                   u3481 073D                     u3810 0E85                     u3570 17E0  
                   u2850 04A3                     u2770 0458                     u2690 040C  
                   u3650 053B                     u2930 0D00                     u3490 0757  
                   u3730 0A06                     u3811 0E84                     u3571 17DF  
                   u3555 17CB                     u2851 04A2                     u2771 0457  
                   u2691 040B                     u2683 03D9                     u2675 03BB  
                   u3651 053A                     u3635 050C                     u3491 0756  
                   u3715 099E                     u3820 0E8B                     u3740 1673  
                   u2860 04B0                     u2780 045E                     u3660 05C5  
                   u2940 0D0D                     u3821 0E8A                     u3741 1672  
                   u2861 04AF                     u2781 045D                     u3661 05C4  
                   u2941 0D0C                     u3725 09E7                     u3910 0F2D  
                   u3830 0E90                     u3590 17EF                     u2870 04B5  
                   u2790 0465                     u3670 0617                     u3911 0F2C  
                   u3831 0E8F                     u3591 17EE                     u2871 04B4  
                   u2791 0464                     u3671 0616                     u3655 0537  
                   u3735 0A02                     u3920 0F40                     u3840 0EAB  
                   u2880 04C5                     u3680 067B                     u2960 0D30  
                   u3921 0F3F                     u3905 0F15                     u3841 0EAA  
                   u3585 17E2                     u2881 04C4                     u2961 0D2F  
                   u3930 0F48                     u3850 0EC9                     u3770 1691  
                   u2890 162A                     u3690 0685                     u2970 0D45  
                   u3931 0F47                     u3915 0F29                     u3851 0EC8  
                   u3771 1690                     u3755 167C                     u2891 1629  
                   u3691 0684                     u2971 0D44                     u3860 0F01  
                   u3780 0E5A                     u2980 0D61                     u3861 0F00  
                   u3781 0E59                     u3765 1683                     u3685 0677  
                   u2981 0D60                     u3950 0F55                     u3790 0E60  
                   u2990 0D65                     u3951 0F54                     u3791 0E5F  
                   u2991 0D64                     u2975 0D41                     u3945 0F4B  
                   i1l90 001E                     u3970 0F65                     u3890 0F13  
                   u3971 0F64                     u3891 0F12                     u3875 0F02  
                   u3980 0F6A                     u3981 0F69                     u3965 0F57  
                   u3885 0F09                     u3990 0F7E                     u3991 0F7D  
                   abs@a 0074                     _dbuf 00AF                     _main 0A20  
                   _dtoa 0CE2                     _prec 00AC                     _nout 00A8  
                   pad@i 002A                     pad@p 0028                     fsr0h 0005  
                   fsr1h 0007                     indf0 0000                     fsr0l 0004  
                   indf1 0001                     fsr1l 0006                     pad@w 002C  
                   btemp 007E                     start 0020          ___fldiv@new_exp 0052  
                  ??_abs 0076                    ??_pad 007B            ___fltol@sign1 0063  
        __end_of___aodiv 0CE2          __end_of___fladd 04C7                    ?_main 0070  
                  ?_dtoa 0030          __end_of___aomod 0BE1          __end_of___fldiv 1000  
        __end_of___flneg 157D          __end_of___flmul 0288          __end_of___flsub 15FA  
        __end_of___fltol 1800             vfpfcnvrt@fmt 004E      ___lmul@multiplicand 0075  
                  _flags 006D                    _fputc 169A                    _fputs 163F  
                  _myIsr 0004                    pad@fp 002E                    _width 00AA  
                  _putch 1569                    _toint 1800                    dtoa@d 0030  
                  dtoa@i 004C                    dtoa@n 0044                    dtoa@p 003D  
                  dtoa@s 0042                    dtoa@w 0040          __end_of_lroundf 161C  
                  status 0003                    wtemp0 007E          __end_of_strncmp 178B  
        __initialization 0022             __end_of_main 0AF7             __end_of_dtoa 0E4C  
                 ??_main 007D                   ??_dtoa 0038                   ?_fputc 0072  
                 ?_fputs 007A                   ?_myIsr 0070                   ?_putch 0070  
                 _RB7PPS 1F1F                   _RC7PPS 1F27                   i1l2892 0006  
                 i1l2894 000B                   i1l2896 0010                   i1l2898 001C  
                 u422_20 000B                   u422_21 000A                   u423_20 001A  
                 u423_21 0017                   u424_24 001C                   u221lld 0C0B  
                 u230lld 0CD0                   u223lld 0C36                   u240lld 0BCF  
                 u232lld 0B21                   u234lld 0B4C                   _SMT1PR 0495  
                 _SPBRGH 011C                   _SPBRGL 011B                   _TX1REG 011A  
                 u295lld 0D2B         __end_of___xxtofl 0968             vfprintf@cfmt 0064  
                 ___flge 0831                   ___lmul 1667                ??___aodiv 0071  
              ??___fladd 0020                ??___aomod 0071                ??___fldiv 0048  
              ??___flneg 0075                ??___flmul 002E                ??___flsub 007D  
              ??___fltol 005E                   _printf 157D                   pad@buf 0027  
                 _roundf 04C7                   dtoa@fp 003F                   _strlen 15A7  
                 fputc@c 0072                   fputs@c 0023                   fputs@i 0024  
                 fputs@s 0026       __size_of__Umul8_16 0023                ??_lroundf 007D  
       __end_of_smt_init 15A7                   putch@c 0071         __end_of_vfprintf 0831  
              ??_strncmp 0077               ___flge@ff1 0071               ___flge@ff2 0075  
           ___xxtofl@arg 0022             ___xxtofl@exp 0021             ___xxtofl@val 0071  
__end_of__initialization 002D               ___flneg@f1 0071               ___fltol@f1 005A  
         __pcstackCOMMON 0070            __end_of_fputc 16D9            __end_of_fputs 1667  
          __end_of_myIsr 0020            __end_of_putch 1572            __end_of_toint 1804  
                ??_fputc 0075                  ??_fputs 0020                  ??_myIsr 0070  
                ??_putch 0071               __pbssBANK0 006D               __pbssBANK1 00A0  
      __end_of__Umul8_16 163F               __pmaintext 0A20              setNcoFreq@a 003C  
            setNcoFreq@b 0040              setNcoFreq@c 0044                  ?___flge 0071  
                ?___lmul 0071               __pintentry 0004           ___lmul@product 0079  
                ?_printf 0066                  ?_roundf 0040                  ?_strlen 0071  
     __size_of_uart_init 000C                ?___xxtofl 0071       __size_of_vfpfcnvrt 0151  
                _SMT1CPR 048F          __size_of___flge 008A                  ___aodiv 0BE1  
                ___fladd 0288                  ___aomod 0AF7                  ___fldiv 0E4C  
                ___flneg 1572          __size_of___lmul 0033                  ___flmul 0031  
                ___flsub 15DA                  ___fltol 178B                ?_smt_init 0070  
              ?_vfprintf 005E                  __ptext1 07F3                  __ptext2 158F  
                __ptext3 0968                  __ptext4 157D                  __ptext5 0800  
                __ptext6 06A2                  __ptext7 172F                  __ptext8 0CE2  
                __ptext9 16D9          __size_of_printf 0012          __size_of_roundf 01DB  
        __size_of_strlen 0019             __size_of_abs 001A             __size_of_pad 0056  
             ??___xxtofl 0075                  _lroundf 15FA                  clrloop0 1564  
          _dataAvailable 00AE               _setNcoFreq 0968                  _strncmp 172F  
   end_of_initialization 002D                  fputc@fp 0074                  fputs@fp 007A  
      __end_of_uart_init 07FF        __end_of_vfpfcnvrt 07F3               ??_smt_init 0071  
                roundf@e 004C                  roundf@u 0052                  roundf@x 0040  
                roundf@y 0056               ??_vfprintf 0061                  strlen@a 0074  
                strlen@s 0075              ___fladd@grs 007C            ___xxtofl@sign 0020  
              _TRISAbits 0012                _TRISBbits 0013                _TRISCbits 0014  
            ___fldiv@grs 0054              ___fldiv@rem 004D              ___flmul@grs 0034  
         __end_of___flge 08BB           __end_of___lmul 169A              vfpfcnvrt@ap 004F  
            vfpfcnvrt@fp 005D              vfpfcnvrt@ll 0055           __end_of_printf 158F  
         __end_of_roundf 06A2           __end_of_strlen 15C0      start_initialization 0022  
            __end_of_abs 15DA              __end_of_pad 172F              ?_setNcoFreq 0030  
            vfprintf@fmt 005E                 ??___flge 0079                 ??___lmul 0079  
              __Umul8_16 161C                 ??_printf 007C                 ??_roundf 0044  
               ??_strlen 0073                ___fladd@a 0075                ___fladd@b 0071  
              ___fldiv@a 0040                ___fldiv@b 0044                ___flmul@a 002A  
              ___flmul@b 0026                ___flsub@a 0028                ___flsub@b 002C  
              ___latbits 0003            __pcstackBANK0 0020            __pcstackBANK1 00CF  
       ___aodiv@dividend 0028        __size_of___xxtofl 00AD              _CLKRCONbits 0895  
              _main$1393 00CF                _dtoa$1139 003B                 ?___aodiv 0020  
               ?___fladd 0071                 ?___aomod 0020                 ?___fldiv 0040  
       ___aodiv@quotient 0074                 ?___flneg 0071                 ?___flmul 0026  
               ?___flsub 0028                 ?___fltol 005A               ?__Umul8_16 0071  
    __size_of_setNcoFreq 00B8           setNcoFreq@freq 0030           setNcoFreq@temp 0048  
      __size_of_smt_init 0018        __size_of_vfprintf 0031              _NCO1CLKbits 0593  
               ?_lroundf 0065              _NCO1CONbits 0592           __size_of_fputc 003F  
         __size_of_fputs 0028           __size_of_myIsr 001C                 ?_strncmp 0071  
         __size_of_putch 0009                 _NCO1INCH 0590                 _NCO1INCL 058F  
               _NCO1INCU 0591                _smt2Value 00A4                 _LATCbits 001A  
              clear_ram0 1563                 _PIE8bits 071E                 _PIR8bits 0714  
              _uart_init 07F3                _vfpfcnvrt 06A2             _SMT1CON0bits 0498  
           _SMT1CON1bits 0499        ___lmul@multiplier 0071               roundf@F528 00A0  
             vfprintf@ap 0060               vfprintf@fp 0063               ?_uart_init 0070  
            ??__Umul8_16 0073         __size_of___aodiv 0101         __size_of___fladd 023F  
       __size_of___aomod 00EA         __size_of___fldiv 01B4         __size_of___flneg 000B  
       __size_of___flmul 0257         __size_of___flsub 0020         __size_of___fltol 0075  
             ?_vfpfcnvrt 004E          ___aodiv@divisor 0020          ___aodiv@counter 0072  
             _ANSELAbits 1F38               _ANSELCbits 1F4E                 ___xxtofl 08BB  
               __ptext10 15A7                 __ptext11 163F                 __ptext20 0288  
               __ptext12 169A                 __ptext21 1572                 __ptext13 1569  
               __ptext22 0031                 __ptext14 15C0                 __ptext23 161C  
               __ptext15 0AF7                 __ptext24 0831                 __ptext16 0BE1  
               __ptext25 178B                 __ptext17 15FA                 __ptext26 08BB  
               __ptext18 04C7                 __ptext27 1667                 __ptext19 15DA  
               __ptext28 0E4C         __size_of_lroundf 0022             ??_setNcoFreq 0034  
       __size_of_strncmp 005C            __size_of_main 00D7            __size_of_dtoa 016A  
             _RC1STAbits 011D                 int$flags 007E                 _smt_init 158F  
               _vfprintf 0800                printf@fmt 0066                 main@temp 00D3  
     __end_of_setNcoFreq 0A20         ___aomod@dividend 0028              _SMT1CLKbits 049B  
             _INTCONbits 000B                 intlevel1 0000                strncmp@_l 0071  
              strncmp@_r 0073                 lroundf@x 0065              ??_uart_init 0071  
               printf@ap 006C          ___aomod@divisor 0020              ??_vfpfcnvrt 0050  
        ___aomod@counter 0072               _SMT1SIGPPS 1EAA            __pstringtext1 1800  
          __pstringtext2 1809            __pstringtext3 180C            __pstringtext4 0000  
 __Umul8_16@multiplicand 0071                 strncmp@l 0078                 strncmp@n 0075  
               strncmp@r 007A               _TX1STAbits 011E            ___fladd@signs 0079  
           ___aodiv@sign 0073             ___fladd@aexp 007A             ___fladd@bexp 007B  
   __Umul8_16@multiplier 0079             ___aomod@sign 0073              _roundf$1394 004E  
            _roundf$1395 0048        __Umul8_16@product 0075  
